(dp1
I33825
I5617
sI14
I1
sI32783
I5410
sI32798
I5411
sI34
I2
sI48
I3
sI52
I4
sI55
I5
sI32824
I5412
sI59
I6
sI32829
I5413
sI62
I7
sI65
I8
sI32837
I5414
sI72
I9
sI32846
I5415
sI32849
I5416
sI32850
I5417
sI32852
I5418
sI32854
I5419
sI32857
I5420
sI93
I10
sI32868
I5421
sI32873
I5422
sI32879
I5423
sI32883
I5424
sI32884
I5425
sI32887
I5426
sI32889
I5427
sI32890
I5428
sI32891
I5429
sI32892
I5430
sI32893
I5431
sI32894
I5432
sI32895
I5433
sI32897
I5434
sI133
I11
sI139
I12
sI141
I13
sI143
I14
sI144
I15
sI146
I16
sI149
I17
sI152
I18
sI32931
I5436
sI32932
I5437
sI171
I19
sI32947
I5439
sI32952
I5440
sI32953
I5441
sI32962
I5442
sI32976
I5443
sI209
I20
sI211
I21
sI32980
I5444
sI213
I22
sI215
I23
sI32986
I5446
sI219
I24
sI220
I25
sI32992
I5447
sI32993
I5448
sI32998
I5449
sI33003
I5450
sI33004
I5451
sI33007
I5452
sI33018
I5453
sI33022
I5454
sI33023
I5455
sI33036
I5456
sI281
I26
sI283
I27
sI285
I28
sI290
I29
sI33061
I5458
sI33068
I5459
sI33071
I5460
sI33075
I5461
sI33081
I5462
sI33086
I5463
sI319
I31
sI33089
I5464
sI33090
I5465
sI33092
I5466
sI33093
I5467
sI33094
I5468
sI33096
I5469
sI33097
I5470
sI33098
I5471
sI33099
I5472
sI334
I32
sI335
I33
sI33107
I5473
sI33108
I5474
sI33109
I5475
sI346
I34
sI347
I35
sI33121
I5476
sI33145
I5477
sI33146
I5478
sI33149
I5479
sI33157
I5480
sI33161
I5481
sI33164
I5482
sI397
I36
sI399
I37
sI402
I38
sI404
I39
sI408
I40
sI411
I41
sI412
I42
sI33181
I5483
sI33195
I5484
sI33196
I5485
sI33198
I5486
sI33205
I5487
sI451
I43
sI453
I44
sI454
I45
sI456
I46
sI458
I47
sI459
I48
sI33229
I5489
sI33230
I5490
sI33233
I5491
sI33235
I5492
sI33236
I5493
sI33238
I5494
sI33239
I5495
sI33244
I5496
sI33246
I5497
sI33249
I5498
sI33251
I5499
sI33252
I5500
sI33256
I5501
sI33257
I5502
sI33261
I5503
sI33264
I5504
sI33268
I5505
sI33273
I5506
sI508
I49
sI33277
I5507
sI510
I50
sI511
I51
sI33280
I5509
sI33282
I5510
sI517
I52
sI33287
I5512
sI33289
I5513
sI33295
I5514
sI33298
I5515
sI33300
I5516
sI33302
I5517
sI33316
I5518
sI33317
I5519
sI33319
I5520
sI33325
I5521
sI33329
I5522
sI33331
I5523
sI566
I53
sI568
I54
sI572
I55
sI33342
I5525
sI33352
I5526
sI33395
I5527
sI33403
I5528
sI33404
I5529
sI642
I56
sI647
I57
sI33422
I5530
sI33424
I5531
sI33425
I5532
sI663
I58
sI33437
I5533
sI671
I59
sI33440
I5534
sI33441
I5535
sI33444
I5536
sI33446
I5537
sI679
I60
sI33448
I5539
sI33449
I5540
sI33453
I5541
sI33454
I5542
sI687
I61
sI33458
I5543
sI33466
I5544
sI33468
I5545
sI705
I62
sI33476
I5546
sI33485
I5547
sI718
I63
sI33488
I5549
sI33490
I5550
sI724
I64
sI33497
I5551
sI730
I65
sI33500
I5553
sI734
I66
sI735
I67
sI736
I68
sI738
I69
sI33507
I5555
sI740
I70
sI33509
I5556
sI742
I71
sI743
I72
sI744
I73
sI745
I74
sI33514
I5559
sI747
I75
sI33516
I5561
sI749
I76
sI33520
I5562
sI753
I77
sI33522
I5563
sI756
I78
sI33525
I5564
sI758
I79
sI33527
I5565
sI33528
I5566
sI763
I80
sI764
I81
sI765
I82
sI33534
I5568
sI767
I83
sI768
I84
sI769
I85
sI33539
I5572
sI772
I86
sI33541
I5573
sI775
I87
sI33545
I5575
sI779
I88
sI780
I89
sI782
I90
sI33551
I5577
sI33552
I5578
sI785
I91
sI788
I92
sI790
I93
sI792
I94
sI793
I95
sI796
I96
sI799
I97
sI802
I98
sI33572
I5582
sI805
I99
sI806
I100
sI807
I101
sI808
I102
sI810
I103
sI811
I104
sI33582
I5583
sI33602
I5584
sI33612
I5585
sI33616
I5586
sI852
I105
sI33626
I5587
sI33631
I5588
sI33633
I5589
sI33635
I5590
sI33637
I5591
sI33640
I5592
sI881
I106
sI882
I107
sI33651
I5593
sI884
I108
sI886
I109
sI889
I110
sI33659
I5594
sI33661
I5595
sI901
I111
sI32920
I5435
sI917
I112
sI33686
I5597
sI919
I113
sI922
I114
sI923
I115
sI33692
I5598
sI33702
I5599
sI33709
I5600
sI945
I116
sI946
I117
sI948
I118
sI33721
I5601
sI33725
I5602
sI966
I119
sI33738
I5603
sI971
I120
sI973
I121
sI33742
I5604
sI975
I122
sI978
I123
sI981
I124
sI983
I125
sI985
I126
sI33758
I5605
sI33761
I5606
sI33762
I5607
sI995
I127
sI33765
I5609
sI1008
I128
sI1009
I129
sI33786
I5611
sI32939
I5438
sI33799
I5612
sI1034
I130
sI1037
I131
sI33815
I5613
sI33818
I5614
sI33820
I5615
sI33821
I5616
sI1057
I132
sI33827
I5618
sI33833
I5619
sI33838
I5620
sI33841
I5621
sI33844
I5622
sI33846
I5623
sI1079
I133
sI1080
I134
sI1106
I135
sI1108
I136
sI33877
I5625
sI1114
I137
sI33891
I5627
sI33894
I5628
sI33900
I5629
sI1140
I138
sI33910
I5630
sI33911
I5631
sI33912
I5632
sI33914
I5633
sI33918
I5634
sI1158
I139
sI33932
I5635
sI33937
I5636
sI1174
I140
sI1175
I141
sI33947
I5637
sI33957
I5638
sI33963
I5639
sI33969
I5640
sI1202
I142
sI33976
I5641
sI33977
I5642
sI33980
I5643
sI1218
I143
sI1220
I144
sI1224
I145
sI1225
I146
sI33994
I5644
sI33996
I5645
sI33997
I5646
sI33999
I5647
sI34002
I5648
sI34004
I5649
sI34008
I5650
sI1241
I147
sI34012
I5651
sI34023
I5652
sI1261
I148
sI34030
I5653
sI34035
I5654
sI34036
I5655
sI1270
I149
sI1271
I150
sI34046
I5656
sI34047
I5657
sI34048
I5658
sI1282
I151
sI34056
I5659
sI32983
I5445
sI1294
I152
sI34063
I5661
sI1297
I153
sI1298
I154
sI1300
I155
sI1301
I156
sI34070
I5663
sI34071
I5664
sI34077
I5665
sI34085
I5666
sI1321
I157
sI34090
I5667
sI34091
I5668
sI34093
I5669
sI34100
I5670
sI34101
I5671
sI1335
I158
sI34111
I5672
sI34112
I5673
sI34119
I5674
sI34124
I5675
sI34126
I5676
sI34130
I5677
sI34132
I5678
sI1365
I159
sI34141
I5680
sI1382
I160
sI34151
I5681
sI34153
I5682
sI1386
I161
sI34155
I5684
sI34168
I5685
sI1402
I162
sI1413
I163
sI34184
I5688
sI34188
I5689
sI34189
I5690
sI34199
I5691
sI1432
I164
sI34201
I5692
sI34202
I5693
sI1435
I165
sI34204
I5694
sI34207
I5695
sI34210
I5696
sI34214
I5697
sI1448
I166
sI34219
I5698
sI34225
I5699
sI34228
I5700
sI34229
I5701
sI1462
I167
sI34231
I5702
sI1465
I168
sI1469
I169
sI1473
I170
sI1475
I171
sI1477
I172
sI34250
I5703
sI34252
I5704
sI34254
I5705
sI34256
I5706
sI34259
I5707
sI1501
I173
sI1502
I174
sI34281
I5710
sI34283
I5711
sI1516
I175
sI34289
I5712
sI34290
I5713
sI34292
I5714
sI34296
I5715
sI34297
I5716
sI1532
I176
sI1547
I177
sI34316
I5717
sI34317
I5718
sI34321
I5719
sI34327
I5720
sI1561
I178
sI34331
I5721
sI34334
I5722
sI34337
I5723
sI34347
I5724
sI34348
I5725
sI34349
I5726
sI34350
I5727
sI1584
I179
sI34353
I5729
sI34359
I5730
sI1597
I180
sI34379
I5731
sI1613
I181
sI34382
I5732
sI34383
I5733
sI1629
I182
sI34398
I5734
sI1632
I183
sI1637
I184
sI34406
I5735
sI34408
I5736
sI34409
I5737
sI34417
I5738
sI1650
I185
sI34422
I5739
sI34425
I5740
sI34427
I5741
sI34428
I5742
sI34430
I5743
sI34431
I5744
sI34441
I5745
sI34446
I5746
sI1679
I186
sI34927
I5827
sI34459
I5747
sI34461
I5748
sI34462
I5749
sI34464
I5750
sI1697
I187
sI34466
I5751
sI33051
I5457
sI34918
I5824
sI34483
I5752
sI1716
I188
sI34486
I5753
sI34491
I5754
sI34492
I5755
sI1730
I189
sI1742
I190
sI34518
I5756
sI1751
I191
sI1754
I192
sI1756
I193
sI1758
I194
sI293
I30
sI34532
I5757
sI34538
I5758
sI1772
I195
sI34541
I5759
sI34547
I5760
sI1783
I196
sI34552
I5761
sI34556
I5762
sI34558
I5763
sI1795
I197
sI1797
I198
sI1803
I199
sI34572
I5764
sI34574
I5765
sI1815
I200
sI34594
I5767
sI34597
I5768
sI34619
I5769
sI1852
I201
sI34621
I5770
sI34623
I5771
sI1862
I202
sI34636
I5772
sI1869
I203
sI1872
I204
sI1873
I205
sI1874
I206
sI34644
I5773
sI34648
I5774
sI34649
I5775
sI34650
I5776
sI1887
I207
sI34659
I5777
sI1895
I208
sI34666
I5778
sI1905
I209
sI34676
I5779
sI34678
I5780
sI1914
I210
sI1915
I211
sI34686
I5781
sI1926
I212
sI34695
I5782
sI34696
I5783
sI34711
I5784
sI34721
I5785
sI34722
I5786
sI34723
I5787
sI34725
I5788
sI34729
I5789
sI1969
I213
sI34738
I5790
sI1972
I214
sI1978
I215
sI34747
I5793
sI34749
I5794
sI34752
I5795
sI34756
I5796
sI34758
I5797
sI34768
I5798
sI34774
I5799
sI34790
I5800
sI34794
I5801
sI2030
I216
sI34799
I5802
sI34802
I5803
sI34812
I5804
sI34813
I5805
sI34818
I5806
sI2055
I217
sI34827
I5807
sI34839
I5808
sI34842
I5809
sI34847
I5810
sI34856
I5811
sI34858
I5812
sI34861
I5813
sI34874
I5814
sI34879
I5815
sI34882
I5816
sI2115
I218
sI2116
I219
sI34886
I5818
sI34891
I5819
sI2129
I220
sI34902
I5820
sI34904
I5821
sI34909
I5822
sI34910
I5823
sI2148
I221
sI2149
I222
sI2150
I223
sI34923
I5825
sI34924
I5826
sI2159
I224
sI34928
I5828
sI34929
I5829
sI34936
I5830
sI2173
I225
sI2177
I226
sI34950
I5833
sI34955
I5834
sI34956
I5835
sI34957
I5836
sI34961
I5837
sI34963
I5838
sI2196
I227
sI2198
I228
sI2205
I229
sI34976
I5839
sI2223
I230
sI34992
I5840
sI34993
I5841
sI34996
I5842
sI34998
I5843
sI34999
I5844
sI2237
I231
sI2240
I232
sI2244
I233
sI2245
I234
sI2249
I235
sI2250
I236
sI2255
I237
sI35028
I5846
sI35029
I5847
sI2264
I238
sI2270
I239
sI35039
I5848
sI2274
I240
sI2276
I241
sI2277
I242
sI2280
I243
sI35049
I5850
sI35050
I5851
sI2285
I244
sI2286
I245
sI2289
I246
sI35062
I5853
sI2299
I247
sI2309
I248
sI2311
I249
sI35082
I5854
sI2316
I250
sI35085
I5855
sI35087
I5856
sI35089
I5857
sI35090
I5858
sI35091
I5859
sI2324
I251
sI35095
I5860
sI35097
I5861
sI35100
I5862
sI2333
I252
sI2337
I253
sI2339
I254
sI2342
I255
sI2348
I256
sI2349
I257
sI2351
I258
sI35121
I5863
sI35129
I5864
sI2362
I259
sI2363
I260
sI35134
I5865
sI35145
I5866
sI35146
I5867
sI2382
I261
sI2385
I262
sI2389
I263
sI2390
I264
sI2392
I265
sI35161
I5869
sI2398
I266
sI2400
I267
sI2401
I268
sI2402
I269
sI2403
I270
sI2406
I271
sI35176
I5871
sI2412
I272
sI2414
I273
sI2415
I274
sI2416
I275
sI2417
I276
sI2418
I277
sI2420
I278
sI2421
I279
sI2423
I280
sI2427
I281
sI2434
I282
sI2444
I283
sI2445
I284
sI35221
I5875
sI2455
I285
sI2461
I286
sI2462
I287
sI2464
I288
sI2465
I289
sI35236
I5876
sI35245
I5877
sI35251
I5878
sI2485
I290
sI35254
I5879
sI2499
I291
sI35268
I5880
sI35273
I5881
sI35275
I5882
sI2511
I292
sI35280
I5883
sI35281
I5884
sI2516
I293
sI2518
I294
sI2519
I295
sI2520
I296
sI2522
I297
sI35294
I5885
sI2527
I298
sI2531
I299
sI2532
I300
sI35302
I5886
sI2535
I301
sI35306
I5887
sI2545
I302
sI35316
I5888
sI2550
I303
sI35319
I5889
sI2552
I304
sI2555
I305
sI2556
I306
sI2559
I307
sI2561
I308
sI35333
I5890
sI2573
I309
sI2577
I310
sI2580
I311
sI2581
I312
sI2582
I313
sI2585
I314
sI35354
I5891
sI2588
I315
sI2592
I316
sI35361
I5892
sI35362
I5893
sI35368
I5894
sI35369
I5895
sI35371
I5896
sI35376
I5897
sI2612
I317
sI2620
I318
sI2621
I319
sI2622
I320
sI2624
I321
sI35398
I5898
sI35399
I5899
sI35409
I5900
sI35412
I5901
sI2647
I322
sI35422
I5902
sI2656
I323
sI2663
I324
sI2664
I325
sI35433
I5903
sI2669
I326
sI35439
I5905
sI2673
I327
sI2675
I328
sI35447
I5906
sI2681
I329
sI2685
I330
sI2686
I331
sI2690
I332
sI2691
I333
sI2696
I334
sI2697
I335
sI2699
I336
sI2700
I337
sI35471
I5908
sI35473
I5909
sI2709
I338
sI35488
I5911
sI2723
I339
sI2727
I340
sI35496
I5913
sI2730
I341
sI2732
I342
sI2735
I343
sI2736
I344
sI2737
I345
sI2738
I346
sI2739
I347
sI2743
I348
sI2744
I349
sI2749
I350
sI35520
I5915
sI2753
I351
sI2754
I352
sI2757
I353
sI2759
I354
sI2763
I355
sI35532
I5916
sI2765
I356
sI2774
I357
sI2780
I358
sI35552
I5917
sI2788
I359
sI2792
I360
sI2796
I361
sI2800
I362
sI2809
I363
sI2814
I364
sI35584
I5918
sI35587
I5919
sI35588
I5920
sI2830
I365
sI35601
I5921
sI2837
I366
sI35611
I5923
sI2846
I367
sI2848
I368
sI35620
I5925
sI2855
I369
sI2858
I370
sI2872
I371
sI2875
I372
sI35651
I5926
sI2888
I373
sI35666
I5927
sI2900
I374
sI2901
I375
sI35670
I5928
sI2907
I376
sI2908
I377
sI2912
I378
sI35696
I5929
sI35706
I5930
sI35713
I5931
sI2949
I379
sI2950
I380
sI35719
I5933
sI35720
I5934
sI35721
I5935
sI35722
I5936
sI35723
I5937
sI2957
I381
sI2959
I382
sI35734
I5939
sI2967
I383
sI2968
I384
sI2970
I385
sI2971
I386
sI35740
I5940
sI2977
I387
sI35760
I5941
sI2995
I388
sI2996
I389
sI35766
I5943
sI35776
I5944
sI35778
I5945
sI3014
I390
sI3017
I391
sI3018
I392
sI3019
I393
sI35801
I5946
sI3038
I394
sI35808
I5948
sI3046
I395
sI35815
I5949
sI35816
I5950
sI3052
I396
sI3053
I397
sI3054
I398
sI35826
I5951
sI35827
I5952
sI33278
I5508
sI3064
I399
sI35834
I5953
sI3068
I400
sI3075
I401
sI35848
I5954
sI3082
I402
sI3085
I403
sI3092
I404
sI35861
I5955
sI3096
I405
sI33285
I5511
sI35875
I5956
sI3110
I406
sI35879
I5957
sI3113
I407
sI35886
I5958
sI35891
I5959
sI3126
I408
sI3129
I409
sI3132
I410
sI3133
I411
sI3146
I412
sI35918
I5960
sI35920
I5961
sI35921
I5962
sI3154
I413
sI3155
I414
sI35924
I5964
sI3157
I415
sI3158
I416
sI3160
I417
sI35929
I5966
sI35932
I5967
sI3165
I418
sI35940
I5969
sI3176
I419
sI3178
I420
sI3183
I421
sI3184
I422
sI35954
I5971
sI35961
I5972
sI35964
I5973
sI3211
I423
sI3213
I424
sI3214
I425
sI35984
I5974
sI35988
I5975
sI3223
I426
sI3226
I427
sI3227
I428
sI3228
I429
sI3229
I430
sI36009
I5977
sI36016
I5978
sI3249
I431
sI3253
I432
sI3255
I433
sI3259
I434
sI36028
I5979
sI3263
I435
sI3264
I436
sI3268
I437
sI3274
I438
sI3275
I439
sI3280
I440
sI3291
I441
sI36066
I5980
sI3306
I442
sI3314
I443
sI3317
I444
sI36086
I5981
sI3326
I445
sI3329
I446
sI36100
I5982
sI3338
I447
sI3342
I448
sI3343
I449
sI3344
I450
sI3347
I451
sI36118
I5983
sI3353
I452
sI36124
I5984
sI3361
I453
sI3362
I454
sI36133
I5985
sI3367
I455
sI36141
I5986
sI3374
I456
sI36144
I5988
sI36155
I5989
sI3391
I457
sI36166
I5990
sI36169
I5991
sI36170
I5992
sI3403
I458
sI3404
I459
sI33336
I5524
sI36184
I5993
sI36192
I5994
sI36193
I5995
sI36202
I5996
sI36203
I5997
sI36204
I5998
sI36217
I5999
sI3455
I460
sI36229
I6000
sI36230
I6001
sI36232
I6002
sI36233
I6003
sI36235
I6004
sI36237
I6005
sI36247
I6006
sI36251
I6007
sI3486
I461
sI3487
I462
sI36256
I6008
sI36258
I6009
sI36261
I6010
sI36262
I6011
sI3499
I463
sI3503
I464
sI36276
I6013
sI36277
I6014
sI3512
I465
sI3515
I466
sI3516
I467
sI3517
I468
sI3520
I469
sI36293
I6015
sI36295
I6016
sI3528
I470
sI3530
I471
sI3531
I472
sI36307
I6017
sI36311
I6018
sI3550
I473
sI3552
I474
sI3557
I475
sI36327
I6019
sI36331
I6020
sI3565
I476
sI3566
I477
sI3568
I478
sI3569
I479
sI3570
I480
sI3573
I481
sI3574
I482
sI3576
I483
sI3577
I484
sI3578
I485
sI36351
I6022
sI36359
I6023
sI36360
I6024
sI36367
I6025
sI3607
I486
sI36376
I6026
sI3609
I487
sI3611
I488
sI3613
I489
sI3614
I490
sI3617
I491
sI3618
I492
sI3631
I493
sI3633
I494
sI3634
I495
sI3636
I496
sI3640
I497
sI3642
I498
sI36413
I6029
sI36415
I6030
sI3650
I499
sI36425
I6031
sI3660
I500
sI3661
I501
sI3670
I502
sI36440
I6033
sI36446
I6034
sI36447
I6035
sI36448
I6036
sI3694
I503
sI36465
I6037
sI36469
I6038
sI3707
I504
sI3711
I505
sI3712
I506
sI36484
I6039
sI3717
I507
sI3720
I508
sI36489
I6040
sI3725
I509
sI3726
I510
sI3728
I511
sI3731
I512
sI36501
I6041
sI3738
I513
sI3739
I514
sI36508
I6042
sI3742
I515
sI3743
I516
sI3744
I517
sI3753
I518
sI36522
I6043
sI36524
I6044
sI3762
I519
sI36531
I6045
sI36532
I6046
sI3767
I520
sI36539
I6047
sI36540
I6048
sI36541
I6049
sI36543
I6050
sI3777
I521
sI36547
I6051
sI36551
I6052
sI36555
I6053
sI3791
I522
sI3794
I523
sI3801
I524
sI3803
I525
sI36575
I6054
sI36584
I6055
sI3822
I526
sI3823
I527
sI36592
I6057
sI3826
I528
sI3827
I529
sI3828
I530
sI3830
I531
sI3831
I532
sI3832
I533
sI3833
I534
sI36602
I6060
sI36605
I6061
sI3839
I535
sI3844
I536
sI3846
I537
sI36617
I6062
sI3850
I538
sI36621
I6064
sI36622
I6065
sI3856
I539
sI3859
I540
sI3866
I541
sI3868
I542
sI3870
I543
sI36640
I6068
sI3875
I544
sI36646
I6069
sI3880
I545
sI36649
I6071
sI3884
I546
sI36659
I6072
sI3893
I547
sI3896
I548
sI3910
I549
sI36679
I6074
sI3912
I550
sI3915
I551
sI3917
I552
sI3919
I553
sI3920
I554
sI36690
I6076
sI3927
I555
sI36697
I6077
sI36703
I6078
sI36705
I6079
sI3938
I556
sI36707
I6080
sI3945
I557
sI3947
I558
sI3949
I559
sI3950
I560
sI3951
I561
sI36720
I6082
sI36721
I6083
sI36722
I6084
sI36723
I6085
sI3957
I562
sI36733
I6087
sI3971
I563
sI3972
I564
sI3983
I565
sI3984
I566
sI3986
I567
sI3991
I568
sI3992
I569
sI3994
I570
sI36764
I6089
sI4001
I571
sI4007
I572
sI4009
I573
sI36786
I6090
sI36788
I6091
sI36791
I6092
sI4025
I574
sI4026
I575
sI4031
I576
sI36803
I6094
sI36804
I6095
sI36807
I6096
sI36815
I6097
sI4050
I577
sI4056
I578
sI4060
I579
sI36831
I6098
sI4070
I580
sI4074
I581
sI33447
I5538
sI4079
I582
sI36849
I6100
sI4083
I583
sI36852
I6101
sI4091
I584
sI4092
I585
sI4094
I586
sI4095
I587
sI4096
I588
sI4100
I589
sI4101
I590
sI4102
I591
sI4103
I592
sI4105
I593
sI36875
I6103
sI4109
I594
sI4110
I595
sI4112
I596
sI36881
I6104
sI4117
I597
sI4120
I598
sI4121
I599
sI4123
I600
sI36900
I6106
sI36904
I6107
sI36906
I6108
sI36907
I6109
sI36908
I6110
sI36910
I6111
sI4148
I601
sI36917
I6112
sI4157
I602
sI36927
I6113
sI4170
I603
sI36946
I6114
sI36948
I6115
sI36952
I6116
sI36953
I6117
sI4186
I604
sI4187
I605
sI4188
I606
sI36957
I6119
sI4193
I607
sI36963
I6120
sI4198
I608
sI36968
I6121
sI4203
I609
sI4207
I610
sI4208
I611
sI36977
I6122
sI4213
I612
sI36985
I6123
sI36986
I6124
sI4219
I613
sI4221
I614
sI36993
I6125
sI4226
I615
sI36995
I6126
sI36996
I6127
sI36997
I6128
sI36998
I6129
sI4231
I616
sI37003
I6130
sI4241
I617
sI4242
I618
sI37013
I6131
sI37017
I6132
sI4251
I619
sI37020
I6134
sI37021
I6135
sI37022
I6136
sI37023
I6137
sI37024
I6138
sI4257
I620
sI4260
I621
sI37029
I6139
sI37030
I6140
sI4266
I622
sI37037
I6141
sI37038
I6142
sI4276
I623
sI4277
I624
sI4278
I625
sI37047
I6145
sI4281
I626
sI4282
I627
sI4283
I628
sI4284
I629
sI4287
I630
sI4289
I631
sI4296
I632
sI37066
I6149
sI4304
I633
sI33486
I5548
sI37083
I6151
sI37085
I6152
sI37090
I6153
sI37095
I6154
sI37098
I6155
sI37099
I6156
sI4335
I634
sI37104
I6157
sI4340
I635
sI4347
I636
sI4349
I637
sI37119
I6159
sI37123
I6160
sI37126
I6161
sI37128
I6162
sI4362
I638
sI4364
I639
sI37133
I6163
sI4366
I640
sI4368
I641
sI37138
I6164
sI4374
I642
sI4376
I643
sI4379
I644
sI37148
I6165
sI33498
I5552
sI4382
I645
sI4383
I646
sI37153
I6166
sI37156
I6167
sI37157
I6168
sI4390
I647
sI37161
I6169
sI4395
I648
sI37164
I6170
sI4410
I649
sI4411
I650
sI37181
I6172
sI37184
I6173
sI37187
I6174
sI37190
I6175
sI4423
I651
sI4429
I652
sI37198
I6176
sI4437
I653
sI4442
I654
sI4444
I655
sI37219
I6177
sI37220
I6178
sI4453
I656
sI4455
I657
sI37224
I6179
sI33511
I5558
sI37228
I6180
sI37229
I6181
sI33515
I5560
sI4487
I658
sI4503
I659
sI4508
I660
sI37277
I6182
sI4512
I661
sI4516
I662
sI37286
I6183
sI37288
I6184
sI37289
I6185
sI37290
I6186
sI37292
I6187
sI37294
I6188
sI37303
I6189
sI4541
I663
sI4547
I664
sI4548
I665
sI4550
I666
sI4562
I667
sI37333
I6192
sI37335
I6193
sI4568
I668
sI37343
I6194
sI37345
I6195
sI4579
I669
sI4581
I670
sI4582
I671
sI37351
I6196
sI37353
I6197
sI4587
I672
sI4588
I673
sI4590
I674
sI4591
I675
sI37360
I6199
sI4593
I676
sI37364
I6200
sI33535
I5569
sI4604
I677
sI4606
I678
sI33536
I5570
sI33537
I5571
sI4617
I679
sI4619
I680
sI4622
I681
sI4627
I682
sI37407
I6202
sI4640
I683
sI4644
I684
sI33543
I5574
sI4652
I685
sI4656
I686
sI4664
I687
sI37440
I6203
sI4673
I688
sI4676
I689
sI37445
I6204
sI4678
I690
sI33548
I5576
sI37453
I6205
sI37457
I6206
sI4692
I691
sI4695
I692
sI37464
I6208
sI4700
I693
sI4701
I694
sI37474
I6209
sI37476
I6210
sI4713
I695
sI4715
I696
sI4717
I697
sI37486
I6213
sI37489
I6214
sI4722
I698
sI4727
I699
sI33556
I5579
sI37499
I6215
sI37508
I6216
sI33558
I5580
sI4743
I700
sI37517
I6217
sI33560
I5581
sI4757
I701
sI37530
I6218
sI37537
I6219
sI37538
I6220
sI4771
I702
sI37540
I6222
sI37542
I6223
sI4775
I703
sI4785
I704
sI4786
I705
sI37558
I6225
sI4794
I706
sI37565
I6226
sI37576
I6227
sI4809
I707
sI37580
I6229
sI37581
I6230
sI4817
I708
sI4818
I709
sI37594
I6232
sI4828
I710
sI4829
I711
sI4830
I712
sI37599
I6233
sI37609
I6234
sI37613
I6235
sI4846
I713
sI4850
I714
sI4852
I715
sI37622
I6236
sI37630
I6237
sI37632
I6238
sI4869
I716
sI4870
I717
sI4872
I718
sI4875
I719
sI37651
I6239
sI4885
I720
sI4887
I721
sI37656
I6240
sI4892
I722
sI4893
I723
sI37663
I6241
sI4896
I724
sI4897
I725
sI37666
I6243
sI4900
I726
sI4901
I727
sI4902
I728
sI4903
I729
sI37677
I6245
sI4910
I730
sI37680
I6246
sI37684
I6247
sI4918
I731
sI4923
I732
sI4938
I733
sI37708
I6249
sI4947
I734
sI4949
I735
sI4950
I736
sI4959
I737
sI37728
I6250
sI4964
I738
sI4965
I739
sI37734
I6251
sI37738
I6252
sI4973
I740
sI4974
I741
sI37743
I6254
sI4976
I742
sI4982
I743
sI37751
I6255
sI37754
I6256
sI4988
I744
sI37761
I6257
sI4994
I745
sI37766
I6258
sI5000
I746
sI5010
I747
sI37782
I6259
sI5016
I748
sI5022
I749
sI5023
I750
sI37794
I6262
sI37795
I6263
sI5029
I751
sI37798
I6265
sI37799
I6266
sI37802
I6267
sI37810
I6268
sI5043
I752
sI37813
I6269
sI37819
I6270
sI5053
I753
sI37826
I6271
sI5059
I754
sI37835
I6272
sI5069
I755
sI37838
I6273
sI37839
I6274
sI37840
I6275
sI5074
I756
sI5077
I757
sI37850
I6278
sI37854
I6279
sI5090
I758
sI5094
I759
sI37864
I6281
sI37865
I6282
sI37866
I6283
sI37876
I6284
sI5118
I760
sI5123
I761
sI37893
I6285
sI37894
I6286
sI5132
I762
sI37908
I6287
sI5143
I763
sI37912
I6288
sI37915
I6289
sI5150
I764
sI37919
I6290
sI37920
I6291
sI37924
I6292
sI5158
I765
sI5159
I766
sI37934
I6295
sI37936
I6296
sI5179
I767
sI5182
I768
sI5187
I769
sI5188
I770
sI5194
I771
sI5197
I772
sI5199
I773
sI5205
I774
sI5216
I775
sI37989
I6299
sI37991
I6300
sI5230
I776
sI5232
I777
sI5234
I778
sI5237
I779
sI38007
I6301
sI5243
I780
sI5245
I781
sI5246
I782
sI38017
I6302
sI5257
I783
sI38027
I6303
sI5262
I784
sI38031
I6304
sI5266
I785
sI38035
I6305
sI38037
I6306
sI38041
I6307
sI38043
I6308
sI5277
I786
sI5278
I787
sI5281
I788
sI5282
I789
sI5283
I790
sI5286
I791
sI38058
I6309
sI38067
I6310
sI38071
I6311
sI38072
I6312
sI38074
I6313
sI38075
I6314
sI38076
I6315
sI38079
I6316
sI38080
I6317
sI5315
I792
sI38088
I6318
sI38090
I6319
sI38091
I6320
sI5332
I793
sI5347
I794
sI5350
I795
sI5352
I796
sI38123
I6321
sI5357
I797
sI5361
I798
sI5362
I799
sI5365
I800
sI5371
I801
sI5373
I802
sI38142
I6322
sI5375
I803
sI5378
I804
sI5381
I805
sI38166
I6323
sI5400
I806
sI33669
I5596
sI5408
I807
sI5409
I808
sI5412
I809
sI5421
I810
sI5422
I811
sI5431
I812
sI5433
I813
sI5443
I814
sI5467
I815
sI5473
I816
sI5483
I817
sI5484
I818
sI5505
I819
sI5510
I820
sI5513
I821
sI5514
I822
sI5523
I823
sI5552
I824
sI5554
I825
sI5557
I826
sI5562
I827
sI5571
I828
sI5581
I829
sI5608
I830
sI5612
I831
sI5616
I832
sI5618
I833
sI5621
I834
sI5626
I835
sI5630
I836
sI5634
I837
sI5643
I838
sI5644
I839
sI5646
I840
sI5648
I841
sI5654
I842
sI5663
I843
sI5695
I844
sI5698
I845
sI5700
I846
sI5704
I847
sI5706
I848
sI5708
I849
sI5709
I850
sI5712
I851
sI5713
I852
sI5718
I853
sI5719
I854
sI5721
I855
sI5724
I856
sI5731
I857
sI5746
I858
sI5757
I859
sI5763
I860
sI5771
I861
sI5776
I862
sI5780
I863
sI5805
I864
sI5807
I865
sI5808
I866
sI5816
I867
sI5818
I868
sI5822
I869
sI5829
I870
sI5836
I871
sI5839
I872
sI5840
I873
sI5851
I874
sI5852
I875
sI5853
I876
sI5855
I877
sI5857
I878
sI5858
I879
sI5859
I880
sI5863
I881
sI5868
I882
sI5877
I883
sI5884
I884
sI5903
I885
sI5904
I886
sI5913
I887
sI5917
I888
sI5920
I889
sI5924
I890
sI5925
I891
sI5934
I892
sI5938
I893
sI5941
I894
sI5950
I895
sI5958
I896
sI5970
I897
sI33763
I5608
sI5976
I898
sI5986
I899
sI5989
I900
sI5995
I901
sI5996
I902
sI5998
I903
sI6020
I904
sI6021
I905
sI6025
I906
sI6026
I907
sI6027
I908
sI6028
I909
sI6033
I910
sI6036
I911
sI6040
I912
sI6042
I913
sI6045
I914
sI6047
I915
sI6049
I916
sI6051
I917
sI6070
I918
sI6084
I919
sI6105
I920
sI6106
I921
sI6108
I922
sI6111
I923
sI6123
I924
sI6133
I925
sI6138
I926
sI6139
I927
sI6143
I928
sI6145
I929
sI6148
I930
sI6153
I931
sI6156
I932
sI6158
I933
sI6159
I934
sI6173
I935
sI6178
I936
sI6179
I937
sI6181
I938
sI6192
I939
sI6199
I940
sI6201
I941
sI6208
I942
sI6210
I943
sI6211
I944
sI6230
I945
sI6231
I946
sI6237
I947
sI6260
I948
sI6270
I949
sI6274
I950
sI6277
I951
sI6280
I952
sI6288
I953
sI6295
I954
sI6296
I955
sI6308
I956
sI6312
I957
sI6313
I958
sI6324
I959
sI6325
I960
sI6327
I961
sI6330
I962
sI6343
I963
sI6344
I964
sI6359
I965
sI6375
I966
sI6380
I967
sI6385
I968
sI6386
I969
sI6388
I970
sI6389
I971
sI6393
I972
sI6403
I973
sI6411
I974
sI6412
I975
sI6414
I976
sI6417
I977
sI6418
I978
sI6424
I979
sI6425
I980
sI6433
I981
sI6443
I982
sI6449
I983
sI6457
I984
sI6459
I985
sI6468
I986
sI33847
I5624
sI6476
I987
sI6480
I988
sI6487
I989
sI6488
I990
sI6492
I991
sI6498
I992
sI6507
I993
sI6512
I994
sI6515
I995
sI6516
I996
sI6519
I997
sI6520
I998
sI6526
I999
sI6527
I1000
sI6529
I1001
sI6544
I1002
sI6546
I1003
sI6551
I1004
sI6566
I1005
sI6571
I1006
sI6574
I1007
sI6586
I1008
sI6595
I1009
sI6609
I1010
sI6614
I1011
sI6621
I1012
sI6626
I1013
sI6671
I1014
sI6679
I1015
sI33882
I5626
sI6688
I1016
sI6694
I1017
sI6698
I1018
sI6700
I1019
sI6702
I1020
sI6704
I1021
sI6708
I1022
sI6713
I1023
sI6714
I1024
sI6725
I1025
sI6731
I1026
sI6733
I1027
sI6738
I1028
sI6740
I1029
sI6742
I1030
sI6744
I1031
sI6745
I1032
sI6751
I1033
sI6752
I1034
sI6755
I1035
sI6756
I1036
sI6759
I1037
sI6766
I1038
sI6770
I1039
sI6772
I1040
sI6773
I1041
sI6777
I1042
sI6782
I1043
sI6784
I1044
sI6792
I1045
sI6793
I1046
sI6808
I1047
sI6818
I1048
sI6825
I1049
sI6830
I1050
sI6841
I1051
sI6846
I1052
sI6854
I1053
sI6856
I1054
sI6875
I1055
sI6878
I1056
sI6885
I1057
sI6886
I1058
sI6888
I1059
sI6892
I1060
sI6897
I1061
sI6907
I1062
sI6919
I1063
sI6920
I1064
sI6922
I1065
sI6928
I1066
sI6933
I1067
sI6979
I1068
sI6981
I1069
sI6982
I1070
sI6995
I1071
sI6998
I1072
sI7001
I1073
sI7002
I1074
sI7008
I1075
sI7009
I1076
sI7011
I1077
sI7021
I1078
sI7036
I1079
sI7043
I1080
sI7046
I1081
sI7048
I1082
sI7070
I1083
sI7080
I1084
sI7092
I1085
sI7094
I1086
sI7096
I1087
sI7113
I1088
sI7117
I1089
sI7123
I1090
sI7129
I1091
sI7135
I1092
sI7139
I1093
sI7142
I1094
sI7145
I1095
sI7151
I1096
sI7154
I1097
sI7157
I1098
sI7158
I1099
sI7160
I1100
sI7164
I1101
sI7191
I1102
sI7196
I1103
sI7210
I1104
sI7213
I1105
sI7215
I1106
sI7216
I1107
sI7219
I1108
sI7228
I1109
sI7232
I1110
sI7238
I1111
sI7247
I1112
sI7252
I1113
sI7258
I1114
sI7270
I1115
sI7273
I1116
sI7283
I1117
sI7289
I1118
sI7290
I1119
sI7292
I1120
sI7293
I1121
sI7294
I1122
sI7315
I1123
sI7317
I1124
sI7319
I1125
sI7320
I1126
sI7323
I1127
sI7327
I1128
sI7333
I1129
sI7334
I1130
sI7336
I1131
sI7337
I1132
sI7339
I1133
sI7341
I1134
sI7342
I1135
sI7343
I1136
sI7347
I1137
sI7348
I1138
sI7352
I1139
sI7353
I1140
sI7365
I1141
sI7366
I1142
sI7369
I1143
sI7370
I1144
sI7372
I1145
sI7383
I1146
sI7384
I1147
sI7394
I1148
sI7396
I1149
sI7407
I1150
sI7409
I1151
sI7410
I1152
sI7417
I1153
sI7418
I1154
sI7419
I1155
sI7421
I1156
sI7425
I1157
sI7426
I1158
sI7438
I1159
sI7446
I1160
sI7447
I1161
sI7454
I1162
sI7465
I1163
sI7474
I1164
sI7488
I1165
sI7489
I1166
sI7491
I1167
sI7495
I1168
sI7500
I1169
sI7518
I1170
sI7520
I1171
sI7541
I1172
sI7549
I1173
sI7552
I1174
sI7569
I1175
sI7580
I1176
sI7583
I1177
sI7586
I1178
sI7590
I1179
sI7596
I1180
sI7616
I1181
sI7617
I1182
sI7629
I1183
sI7653
I1184
sI7656
I1185
sI7662
I1186
sI7683
I1187
sI7684
I1188
sI7686
I1189
sI7691
I1190
sI7697
I1191
sI7698
I1192
sI7701
I1193
sI7724
I1194
sI7727
I1195
sI7733
I1196
sI34062
I5660
sI7766
I1197
sI7775
I1198
sI7777
I1199
sI7785
I1200
sI7787
I1201
sI7789
I1202
sI7793
I1203
sI7799
I1204
sI7800
I1205
sI7806
I1206
sI34069
I5662
sI7812
I1207
sI7815
I1208
sI7816
I1209
sI7817
I1210
sI7819
I1211
sI7831
I1212
sI7843
I1213
sI7847
I1214
sI7850
I1215
sI7852
I1216
sI7853
I1217
sI7857
I1218
sI7863
I1219
sI7864
I1220
sI7865
I1221
sI7867
I1222
sI7874
I1223
sI7879
I1224
sI7880
I1225
sI7894
I1226
sI7897
I1227
sI7903
I1228
sI7904
I1229
sI7907
I1230
sI7917
I1231
sI7924
I1232
sI7929
I1233
sI7943
I1234
sI7944
I1235
sI7945
I1236
sI7957
I1237
sI7959
I1238
sI7961
I1239
sI7970
I1240
sI7971
I1241
sI7974
I1242
sI7976
I1243
sI7980
I1244
sI7985
I1245
sI7990
I1246
sI8001
I1247
sI8005
I1248
sI8006
I1249
sI8008
I1250
sI8017
I1251
sI8018
I1252
sI8021
I1253
sI8024
I1254
sI8039
I1255
sI8051
I1256
sI8053
I1257
sI8082
I1258
sI8083
I1259
sI8085
I1260
sI8090
I1261
sI8092
I1262
sI8096
I1263
sI8131
I1264
sI8138
I1265
sI8140
I1266
sI8144
I1267
sI8168
I1268
sI8176
I1269
sI8188
I1270
sI8189
I1271
sI34133
I5679
sI8200
I1272
sI8206
I1273
sI8211
I1274
sI8220
I1275
sI8232
I1276
sI8233
I1277
sI8235
I1278
sI8242
I1279
sI8243
I1280
sI8244
I1281
sI8247
I1282
sI8249
I1283
sI8250
I1284
sI8257
I1285
sI8262
I1286
sI8269
I1287
sI8283
I1288
sI8284
I1289
sI8297
I1290
sI8313
I1291
sI34154
I5683
sI8327
I1292
sI8339
I1293
sI8342
I1294
sI8345
I1295
sI8349
I1296
sI8352
I1297
sI8353
I1298
sI8363
I1299
sI8366
I1300
sI8385
I1301
sI8390
I1302
sI8392
I1303
sI8397
I1304
sI8401
I1305
sI8404
I1306
sI8405
I1307
sI8409
I1308
sI8411
I1309
sI8412
I1310
sI34170
I5686
sI8414
I1311
sI8415
I1312
sI8418
I1313
sI8425
I1314
sI8431
I1315
sI8440
I1316
sI8445
I1317
sI8450
I1318
sI8457
I1319
sI8470
I1320
sI8471
I1321
sI8473
I1322
sI8477
I1323
sI8478
I1324
sI34181
I5687
sI8480
I1325
sI8497
I1326
sI8500
I1327
sI8504
I1328
sI8507
I1329
sI8512
I1330
sI8523
I1331
sI8524
I1332
sI8526
I1333
sI8527
I1334
sI8530
I1335
sI8531
I1336
sI8532
I1337
sI8535
I1338
sI8536
I1339
sI8537
I1340
sI8552
I1341
sI8562
I1342
sI8589
I1343
sI8590
I1344
sI8594
I1345
sI8605
I1346
sI8608
I1347
sI8624
I1348
sI8625
I1349
sI8627
I1350
sI8628
I1351
sI8631
I1352
sI8639
I1353
sI8640
I1354
sI8643
I1355
sI8656
I1356
sI8659
I1357
sI8663
I1358
sI8669
I1359
sI8682
I1360
sI8685
I1361
sI8694
I1362
sI8699
I1363
sI8705
I1364
sI8706
I1365
sI8709
I1366
sI8713
I1367
sI8717
I1368
sI8718
I1369
sI8719
I1370
sI8720
I1371
sI8721
I1372
sI8738
I1373
sI8740
I1374
sI8745
I1375
sI8749
I1376
sI8755
I1377
sI8763
I1378
sI8765
I1379
sI8780
I1380
sI8782
I1381
sI8783
I1382
sI8809
I1383
sI8811
I1384
sI8815
I1385
sI8818
I1386
sI8823
I1387
sI8825
I1388
sI8828
I1389
sI8833
I1390
sI8834
I1391
sI8837
I1392
sI8839
I1393
sI8840
I1394
sI8841
I1395
sI8862
I1396
sI8867
I1397
sI8871
I1398
sI8872
I1399
sI8874
I1400
sI8883
I1401
sI35212
I5874
sI8891
I1402
sI8901
I1403
sI8907
I1404
sI8908
I1405
sI8910
I1406
sI8911
I1407
sI8913
I1408
sI8914
I1409
sI8916
I1410
sI8917
I1411
sI8918
I1412
sI8924
I1413
sI8925
I1414
sI8927
I1415
sI8931
I1416
sI8933
I1417
sI8935
I1418
sI8937
I1419
sI8939
I1420
sI8946
I1421
sI8948
I1422
sI8958
I1423
sI8962
I1424
sI8968
I1425
sI8978
I1426
sI8979
I1427
sI8980
I1428
sI8981
I1429
sI8983
I1430
sI8990
I1431
sI8991
I1432
sI8992
I1433
sI8996
I1434
sI8997
I1435
sI34269
I5708
sI9008
I1436
sI34270
I5709
sI9022
I1437
sI9023
I1438
sI9032
I1439
sI9035
I1440
sI9036
I1441
sI9037
I1442
sI9038
I1443
sI9041
I1444
sI9052
I1445
sI9053
I1446
sI9061
I1447
sI9078
I1448
sI9079
I1449
sI9081
I1450
sI9082
I1451
sI9085
I1452
sI9089
I1453
sI9096
I1454
sI9098
I1455
sI9099
I1456
sI9104
I1457
sI9107
I1458
sI9109
I1459
sI9114
I1460
sI9119
I1461
sI9127
I1462
sI9133
I1463
sI9138
I1464
sI9154
I1465
sI9157
I1466
sI9159
I1467
sI9169
I1468
sI9174
I1469
sI9175
I1470
sI9185
I1471
sI9192
I1472
sI9195
I1473
sI9196
I1474
sI9201
I1475
sI9205
I1476
sI9227
I1477
sI9231
I1478
sI9256
I1479
sI9273
I1480
sI9284
I1481
sI9288
I1482
sI9292
I1483
sI9293
I1484
sI9296
I1485
sI9298
I1486
sI9299
I1487
sI9302
I1488
sI9304
I1489
sI9305
I1490
sI9310
I1491
sI9316
I1492
sI9321
I1493
sI9322
I1494
sI9331
I1495
sI9333
I1496
sI9334
I1497
sI9339
I1498
sI9341
I1499
sI9342
I1500
sI9344
I1501
sI9347
I1502
sI9349
I1503
sI9352
I1504
sI9355
I1505
sI9356
I1506
sI9359
I1507
sI9367
I1508
sI9368
I1509
sI9380
I1510
sI9381
I1511
sI9383
I1512
sI9384
I1513
sI9385
I1514
sI9396
I1515
sI9413
I1516
sI9414
I1517
sI9422
I1518
sI9432
I1519
sI9457
I1520
sI9458
I1521
sI9460
I1522
sI9471
I1523
sI9492
I1524
sI9493
I1525
sI9497
I1526
sI9498
I1527
sI9503
I1528
sI9505
I1529
sI9510
I1530
sI9518
I1531
sI9537
I1532
sI9538
I1533
sI9541
I1534
sI9545
I1535
sI9551
I1536
sI9552
I1537
sI9554
I1538
sI9558
I1539
sI9560
I1540
sI9566
I1541
sI9575
I1542
sI9580
I1543
sI9592
I1544
sI9593
I1545
sI9594
I1546
sI9595
I1547
sI9597
I1548
sI9598
I1549
sI9599
I1550
sI9600
I1551
sI9619
I1552
sI9623
I1553
sI9625
I1554
sI9627
I1555
sI9643
I1556
sI9650
I1557
sI9666
I1558
sI9669
I1559
sI9676
I1560
sI9683
I1561
sI9684
I1562
sI9689
I1563
sI9695
I1564
sI9697
I1565
sI9715
I1566
sI9719
I1567
sI9726
I1568
sI9733
I1569
sI9735
I1570
sI9767
I1571
sI9780
I1572
sI9782
I1573
sI9789
I1574
sI9798
I1575
sI9799
I1576
sI9802
I1577
sI9803
I1578
sI9806
I1579
sI9810
I1580
sI9815
I1581
sI9832
I1582
sI9833
I1583
sI9838
I1584
sI9861
I1585
sI9868
I1586
sI9876
I1587
sI9918
I1588
sI9925
I1589
sI9926
I1590
sI9927
I1591
sI9936
I1592
sI9949
I1593
sI9953
I1594
sI9968
I1595
sI9969
I1596
sI9970
I1597
sI9972
I1598
sI9973
I1599
sI9982
I1600
sI9984
I1601
sI9988
I1602
sI9990
I1603
sI9999
I1604
sI10000
I1605
sI10002
I1606
sI10005
I1607
sI10010
I1608
sI10013
I1609
sI10022
I1610
sI10031
I1611
sI10043
I1612
sI10049
I1613
sI10061
I1614
sI10064
I1615
sI10065
I1616
sI10071
I1617
sI10080
I1618
sI10081
I1619
sI10082
I1620
sI10084
I1621
sI10089
I1622
sI10092
I1623
sI10097
I1624
sI10098
I1625
sI10107
I1626
sI10109
I1627
sI10111
I1628
sI10115
I1629
sI10118
I1630
sI10123
I1631
sI10124
I1632
sI10125
I1633
sI10127
I1634
sI10130
I1635
sI10140
I1636
sI10143
I1637
sI10148
I1638
sI10153
I1639
sI10161
I1640
sI10163
I1641
sI10164
I1642
sI10170
I1643
sI10174
I1644
sI10175
I1645
sI10178
I1646
sI10187
I1647
sI10194
I1648
sI10198
I1649
sI10202
I1650
sI10203
I1651
sI10206
I1652
sI10211
I1653
sI10213
I1654
sI10214
I1655
sI10222
I1656
sI10223
I1657
sI10225
I1658
sI10226
I1659
sI10227
I1660
sI10228
I1661
sI10238
I1662
sI10257
I1663
sI10267
I1664
sI10272
I1665
sI10275
I1666
sI10280
I1667
sI10293
I1668
sI10297
I1669
sI10298
I1670
sI10304
I1671
sI10305
I1672
sI10308
I1673
sI10311
I1674
sI10312
I1675
sI10313
I1676
sI10314
I1677
sI10315
I1678
sI10317
I1679
sI10326
I1680
sI10342
I1681
sI10358
I1682
sI10369
I1683
sI10370
I1684
sI10377
I1685
sI10380
I1686
sI10381
I1687
sI10383
I1688
sI10386
I1689
sI10404
I1690
sI10408
I1691
sI10413
I1692
sI10414
I1693
sI10430
I1694
sI10432
I1695
sI10433
I1696
sI10434
I1697
sI10435
I1698
sI10447
I1699
sI10448
I1700
sI10449
I1701
sI10453
I1702
sI10459
I1703
sI10466
I1704
sI10470
I1705
sI10471
I1706
sI10479
I1707
sI10490
I1708
sI10496
I1709
sI10516
I1710
sI10531
I1711
sI10536
I1712
sI10537
I1713
sI10550
I1714
sI10559
I1715
sI10566
I1716
sI10577
I1717
sI10580
I1718
sI10582
I1719
sI10592
I1720
sI10593
I1721
sI10600
I1722
sI10601
I1723
sI10607
I1724
sI10608
I1725
sI10634
I1726
sI10644
I1727
sI10645
I1728
sI10646
I1729
sI10662
I1730
sI10666
I1731
sI10667
I1732
sI10672
I1733
sI10684
I1734
sI10690
I1735
sI10703
I1736
sI10708
I1737
sI10709
I1738
sI10713
I1739
sI10716
I1740
sI10720
I1741
sI10721
I1742
sI10723
I1743
sI10725
I1744
sI10728
I1745
sI10730
I1746
sI10731
I1747
sI10732
I1748
sI10741
I1749
sI10742
I1750
sI10745
I1751
sI10746
I1752
sI10747
I1753
sI10760
I1754
sI10786
I1755
sI10792
I1756
sI10795
I1757
sI10796
I1758
sI10798
I1759
sI10799
I1760
sI10800
I1761
sI10810
I1762
sI10811
I1763
sI10818
I1764
sI10822
I1765
sI10826
I1766
sI10828
I1767
sI10837
I1768
sI10855
I1769
sI10858
I1770
sI10874
I1771
sI10879
I1772
sI10880
I1773
sI10891
I1774
sI10896
I1775
sI10898
I1776
sI10904
I1777
sI10905
I1778
sI10913
I1779
sI10914
I1780
sI10915
I1781
sI10920
I1782
sI10933
I1783
sI10940
I1784
sI10941
I1785
sI10943
I1786
sI10953
I1787
sI10955
I1788
sI11002
I1789
sI11007
I1790
sI11013
I1791
sI11014
I1792
sI11017
I1793
sI11019
I1794
sI11021
I1795
sI11027
I1796
sI11028
I1797
sI11033
I1798
sI11035
I1799
sI11039
I1800
sI11041
I1801
sI11042
I1802
sI11045
I1803
sI11056
I1804
sI11059
I1805
sI11067
I1806
sI11071
I1807
sI11075
I1808
sI11077
I1809
sI11087
I1810
sI11088
I1811
sI11089
I1812
sI11106
I1813
sI11110
I1814
sI11111
I1815
sI11112
I1816
sI11115
I1817
sI11116
I1818
sI11117
I1819
sI11118
I1820
sI11119
I1821
sI11120
I1822
sI11122
I1823
sI11139
I1824
sI11140
I1825
sI11141
I1826
sI11142
I1827
sI11144
I1828
sI11148
I1829
sI11156
I1830
sI11161
I1831
sI11164
I1832
sI11165
I1833
sI11166
I1834
sI11169
I1835
sI11171
I1836
sI11182
I1837
sI11190
I1838
sI11205
I1839
sI11228
I1840
sI11232
I1841
sI11236
I1842
sI11237
I1843
sI11239
I1844
sI11245
I1845
sI11251
I1846
sI11253
I1847
sI11264
I1848
sI11286
I1849
sI11288
I1850
sI11297
I1851
sI11299
I1852
sI11319
I1853
sI11334
I1854
sI11350
I1855
sI11357
I1856
sI11376
I1857
sI11378
I1858
sI11382
I1859
sI11393
I1860
sI11394
I1861
sI11401
I1862
sI11411
I1863
sI11424
I1864
sI11431
I1865
sI11433
I1866
sI11436
I1867
sI11438
I1868
sI11444
I1869
sI11454
I1870
sI11455
I1871
sI11457
I1872
sI11465
I1873
sI11466
I1874
sI11469
I1875
sI11472
I1876
sI11474
I1877
sI11478
I1878
sI11489
I1879
sI11490
I1880
sI11491
I1881
sI11492
I1882
sI11501
I1883
sI11503
I1884
sI11506
I1885
sI11513
I1886
sI11518
I1887
sI11522
I1888
sI11527
I1889
sI11531
I1890
sI11532
I1891
sI11548
I1892
sI11549
I1893
sI11552
I1894
sI11554
I1895
sI11555
I1896
sI11557
I1897
sI11558
I1898
sI11576
I1899
sI11581
I1900
sI11584
I1901
sI11586
I1902
sI11595
I1903
sI11607
I1904
sI11623
I1905
sI11632
I1906
sI11638
I1907
sI11640
I1908
sI11645
I1909
sI11647
I1910
sI11659
I1911
sI11670
I1912
sI11681
I1913
sI11686
I1914
sI11687
I1915
sI11694
I1916
sI11695
I1917
sI11696
I1918
sI11700
I1919
sI11716
I1920
sI11718
I1921
sI11719
I1922
sI11735
I1923
sI11743
I1924
sI11750
I1925
sI11761
I1926
sI11762
I1927
sI11765
I1928
sI11767
I1929
sI11775
I1930
sI11783
I1931
sI11788
I1932
sI11790
I1933
sI11797
I1934
sI11798
I1935
sI11799
I1936
sI11800
I1937
sI11804
I1938
sI11814
I1939
sI11819
I1940
sI11827
I1941
sI34740
I5791
sI11834
I1942
sI11842
I1943
sI11851
I1944
sI11858
I1945
sI11859
I1946
sI11861
I1947
sI11868
I1948
sI34746
I5792
sI11870
I1949
sI11876
I1950
sI11880
I1951
sI11884
I1952
sI11885
I1953
sI11893
I1954
sI11901
I1955
sI11906
I1956
sI11910
I1957
sI11915
I1958
sI11919
I1959
sI11922
I1960
sI11923
I1961
sI11930
I1962
sI11934
I1963
sI11949
I1964
sI11972
I1965
sI11973
I1966
sI11978
I1967
sI11984
I1968
sI11985
I1969
sI11987
I1970
sI11992
I1971
sI12004
I1972
sI12014
I1973
sI12034
I1974
sI12036
I1975
sI12038
I1976
sI12043
I1977
sI12045
I1978
sI12048
I1979
sI12051
I1980
sI12052
I1981
sI12053
I1982
sI12057
I1983
sI12058
I1984
sI12068
I1985
sI12070
I1986
sI12080
I1987
sI12085
I1988
sI12087
I1989
sI12088
I1990
sI12089
I1991
sI12096
I1992
sI12101
I1993
sI12103
I1994
sI12105
I1995
sI12121
I1996
sI12124
I1997
sI12125
I1998
sI12140
I1999
sI12144
I2000
sI12145
I2001
sI12148
I2002
sI12157
I2003
sI12159
I2004
sI12185
I2005
sI12194
I2006
sI12196
I2007
sI12199
I2008
sI12213
I2009
sI12214
I2010
sI12218
I2011
sI12228
I2012
sI12229
I2013
sI12230
I2014
sI12232
I2015
sI12240
I2016
sI12243
I2017
sI12256
I2018
sI12264
I2019
sI12274
I2020
sI12278
I2021
sI12298
I2022
sI12305
I2023
sI12306
I2024
sI12308
I2025
sI12320
I2026
sI12323
I2027
sI12328
I2028
sI12330
I2029
sI12331
I2030
sI12335
I2031
sI12337
I2032
sI12341
I2033
sI12348
I2034
sI12350
I2035
sI12356
I2036
sI12379
I2037
sI12381
I2038
sI12391
I2039
sI12409
I2040
sI12411
I2041
sI12412
I2042
sI12413
I2043
sI12431
I2044
sI12439
I2045
sI12440
I2046
sI12442
I2047
sI12443
I2048
sI12444
I2049
sI12454
I2050
sI12460
I2051
sI12467
I2052
sI12468
I2053
sI12471
I2054
sI12473
I2055
sI12495
I2056
sI12496
I2057
sI12499
I2058
sI12516
I2059
sI12517
I2060
sI12518
I2061
sI12519
I2062
sI12523
I2063
sI12524
I2064
sI12536
I2065
sI12537
I2066
sI12560
I2067
sI12561
I2068
sI12564
I2069
sI12569
I2070
sI12576
I2071
sI12578
I2072
sI12581
I2073
sI12591
I2074
sI12592
I2075
sI12600
I2076
sI12603
I2077
sI12604
I2078
sI12611
I2079
sI12614
I2080
sI12618
I2081
sI12622
I2082
sI12623
I2083
sI12624
I2084
sI12627
I2085
sI12630
I2086
sI12631
I2087
sI12632
I2088
sI12633
I2089
sI12634
I2090
sI12637
I2091
sI12640
I2092
sI12642
I2093
sI12649
I2094
sI12651
I2095
sI12652
I2096
sI12660
I2097
sI12661
I2098
sI12686
I2099
sI34883
I5817
sI12709
I2100
sI12718
I2101
sI12719
I2102
sI12721
I2103
sI12723
I2104
sI12730
I2105
sI12735
I2106
sI12737
I2107
sI12743
I2108
sI12747
I2109
sI12752
I2110
sI12763
I2111
sI12767
I2112
sI12771
I2113
sI12776
I2114
sI12777
I2115
sI12779
I2116
sI12802
I2117
sI12819
I2118
sI12821
I2119
sI12824
I2120
sI12832
I2121
sI12836
I2122
sI12837
I2123
sI12840
I2124
sI12842
I2125
sI12857
I2126
sI12874
I2127
sI12879
I2128
sI12883
I2129
sI12891
I2130
sI12900
I2131
sI12901
I2132
sI12909
I2133
sI12910
I2134
sI12923
I2135
sI12934
I2136
sI12936
I2137
sI12939
I2138
sI12941
I2139
sI12942
I2140
sI12946
I2141
sI12951
I2142
sI12952
I2143
sI12955
I2144
sI12956
I2145
sI12968
I2146
sI12974
I2147
sI12982
I2148
sI13008
I2149
sI13009
I2150
sI13034
I2151
sI13036
I2152
sI34941
I5831
sI13049
I2153
sI13055
I2154
sI13057
I2155
sI13063
I2156
sI13064
I2157
sI13065
I2158
sI13068
I2159
sI13070
I2160
sI13072
I2161
sI13073
I2162
sI13088
I2163
sI13091
I2164
sI13092
I2165
sI13095
I2166
sI13100
I2167
sI13101
I2168
sI13103
I2169
sI13106
I2170
sI13131
I2171
sI13137
I2172
sI13138
I2173
sI13139
I2174
sI13140
I2175
sI13141
I2176
sI13145
I2177
sI13146
I2178
sI13158
I2179
sI13164
I2180
sI13167
I2181
sI13169
I2182
sI13171
I2183
sI13173
I2184
sI13175
I2185
sI13177
I2186
sI13184
I2187
sI13190
I2188
sI13193
I2189
sI13195
I2190
sI13209
I2191
sI13215
I2192
sI13217
I2193
sI13219
I2194
sI13220
I2195
sI13225
I2196
sI13230
I2197
sI13242
I2198
sI13265
I2199
sI13267
I2200
sI13290
I2201
sI13298
I2202
sI13302
I2203
sI13303
I2204
sI13316
I2205
sI13317
I2206
sI13319
I2207
sI13320
I2208
sI13322
I2209
sI13324
I2210
sI13330
I2211
sI13332
I2212
sI13333
I2213
sI13336
I2214
sI13339
I2215
sI13342
I2216
sI13343
I2217
sI13347
I2218
sI13352
I2219
sI13354
I2220
sI13369
I2221
sI13373
I2222
sI13382
I2223
sI13384
I2224
sI13395
I2225
sI13396
I2226
sI13399
I2227
sI13401
I2228
sI13405
I2229
sI13418
I2230
sI13419
I2231
sI13421
I2232
sI13423
I2233
sI13428
I2234
sI13431
I2235
sI13437
I2236
sI13438
I2237
sI13442
I2238
sI13444
I2239
sI13446
I2240
sI13453
I2241
sI13454
I2242
sI13458
I2243
sI13465
I2244
sI13473
I2245
sI13480
I2246
sI13483
I2247
sI13490
I2248
sI35017
I5845
sI13497
I2249
sI13498
I2250
sI13502
I2251
sI13514
I2252
sI13515
I2253
sI13524
I2254
sI13525
I2255
sI13533
I2256
sI13543
I2257
sI13544
I2258
sI13547
I2259
sI13553
I2260
sI13563
I2261
sI13572
I2262
sI13576
I2263
sI13577
I2264
sI13589
I2265
sI13591
I2266
sI13592
I2267
sI13593
I2268
sI13598
I2269
sI13599
I2270
sI13601
I2271
sI13602
I2272
sI13615
I2273
sI13617
I2274
sI13621
I2275
sI13633
I2276
sI13636
I2277
sI13639
I2278
sI13647
I2279
sI13648
I2280
sI13656
I2281
sI13658
I2282
sI13659
I2283
sI35045
I5849
sI13665
I2284
sI37554
I6224
sI13691
I2285
sI13697
I2286
sI13707
I2287
sI35053
I5852
sI13713
I2288
sI13716
I2289
sI13719
I2290
sI13726
I2291
sI13733
I2292
sI13740
I2293
sI13745
I2294
sI13750
I2295
sI13760
I2296
sI13764
I2297
sI13770
I2298
sI13771
I2299
sI13778
I2300
sI13793
I2301
sI13797
I2302
sI13801
I2303
sI13802
I2304
sI13815
I2305
sI13818
I2306
sI13820
I2307
sI13823
I2308
sI13824
I2309
sI13827
I2310
sI13838
I2311
sI13842
I2312
sI13847
I2313
sI13850
I2314
sI13857
I2315
sI13859
I2316
sI13872
I2317
sI13880
I2318
sI13892
I2319
sI13903
I2320
sI13905
I2321
sI13911
I2322
sI13914
I2323
sI13922
I2324
sI13923
I2325
sI13926
I2326
sI13929
I2327
sI13933
I2328
sI13934
I2329
sI13956
I2330
sI13959
I2331
sI13964
I2332
sI13971
I2333
sI13972
I2334
sI13974
I2335
sI13981
I2336
sI13982
I2337
sI13985
I2338
sI13986
I2339
sI13987
I2340
sI13993
I2341
sI13996
I2342
sI13999
I2343
sI14002
I2344
sI14009
I2345
sI14013
I2346
sI14015
I2347
sI14017
I2348
sI14021
I2349
sI14031
I2350
sI14037
I2351
sI14040
I2352
sI14042
I2353
sI14043
I2354
sI14045
I2355
sI14050
I2356
sI14052
I2357
sI14053
I2358
sI14054
I2359
sI14056
I2360
sI14057
I2361
sI14058
I2362
sI14063
I2363
sI14072
I2364
sI14076
I2365
sI14088
I2366
sI14100
I2367
sI14109
I2368
sI14114
I2369
sI14117
I2370
sI14118
I2371
sI14138
I2372
sI14143
I2373
sI14145
I2374
sI14148
I2375
sI14150
I2376
sI14152
I2377
sI14157
I2378
sI14177
I2379
sI14183
I2380
sI14205
I2381
sI14206
I2382
sI14210
I2383
sI14223
I2384
sI14229
I2385
sI14249
I2386
sI14252
I2387
sI14254
I2388
sI14262
I2389
sI14269
I2390
sI14271
I2391
sI14276
I2392
sI35150
I5868
sI14296
I2393
sI14303
I2394
sI14304
I2395
sI14307
I2396
sI14311
I2397
sI14313
I2398
sI14315
I2399
sI14321
I2400
sI14331
I2401
sI14335
I2402
sI14339
I2403
sI14341
I2404
sI14359
I2405
sI37577
I6228
sI14383
I2406
sI14391
I2407
sI14409
I2408
sI35170
I5870
sI14416
I2409
sI14418
I2410
sI14421
I2411
sI14423
I2412
sI14434
I2413
sI14436
I2414
sI14438
I2415
sI14439
I2416
sI14447
I2417
sI14448
I2418
sI14450
I2419
sI14451
I2420
sI14473
I2421
sI14483
I2422
sI14484
I2423
sI14487
I2424
sI14490
I2425
sI14491
I2426
sI14497
I2427
sI14499
I2428
sI14509
I2429
sI14515
I2430
sI35188
I5872
sI14523
I2431
sI14540
I2432
sI14549
I2433
sI14552
I2434
sI14559
I2435
sI14560
I2436
sI14562
I2437
sI35195
I5873
sI14564
I2438
sI14567
I2439
sI14568
I2440
sI14569
I2441
sI14570
I2442
sI14573
I2443
sI14577
I2444
sI14589
I2445
sI14590
I2446
sI14594
I2447
sI14600
I2448
sI14607
I2449
sI14618
I2450
sI14623
I2451
sI14624
I2452
sI14626
I2453
sI14627
I2454
sI14628
I2455
sI14634
I2456
sI14652
I2457
sI14653
I2458
sI14660
I2459
sI14661
I2460
sI14664
I2461
sI14665
I2462
sI14676
I2463
sI14677
I2464
sI14700
I2465
sI14717
I2466
sI14718
I2467
sI14723
I2468
sI14728
I2469
sI14732
I2470
sI14736
I2471
sI14742
I2472
sI14747
I2473
sI14751
I2474
sI14753
I2475
sI14755
I2476
sI14764
I2477
sI14779
I2478
sI14782
I2479
sI14783
I2480
sI33226
I5488
sI14785
I2481
sI14796
I2482
sI14798
I2483
sI14811
I2484
sI14812
I2485
sI14818
I2486
sI14822
I2487
sI14823
I2488
sI14828
I2489
sI14835
I2490
sI14849
I2491
sI14852
I2492
sI14858
I2493
sI14868
I2494
sI14888
I2495
sI14895
I2496
sI14899
I2497
sI14906
I2498
sI14922
I2499
sI14932
I2500
sI14938
I2501
sI14941
I2502
sI14947
I2503
sI14948
I2504
sI14950
I2505
sI14953
I2506
sI14961
I2507
sI14962
I2508
sI14971
I2509
sI14976
I2510
sI14978
I2511
sI14983
I2512
sI14986
I2513
sI14990
I2514
sI15004
I2515
sI15013
I2516
sI15025
I2517
sI15034
I2518
sI15038
I2519
sI15042
I2520
sI15043
I2521
sI15044
I2522
sI15045
I2523
sI15062
I2524
sI15070
I2525
sI15081
I2526
sI15085
I2527
sI15087
I2528
sI15090
I2529
sI15096
I2530
sI15099
I2531
sI15105
I2532
sI15112
I2533
sI15113
I2534
sI15117
I2535
sI15149
I2536
sI15150
I2537
sI15152
I2538
sI15167
I2539
sI15170
I2540
sI15174
I2541
sI15176
I2542
sI15181
I2543
sI15185
I2544
sI15190
I2545
sI15196
I2546
sI15201
I2547
sI15208
I2548
sI15209
I2549
sI15210
I2550
sI15235
I2551
sI15243
I2552
sI15244
I2553
sI15246
I2554
sI15263
I2555
sI15269
I2556
sI15294
I2557
sI15307
I2558
sI15310
I2559
sI15319
I2560
sI15321
I2561
sI15330
I2562
sI15332
I2563
sI15333
I2564
sI15337
I2565
sI15346
I2566
sI15349
I2567
sI15350
I2568
sI15367
I2569
sI15375
I2570
sI15376
I2571
sI15378
I2572
sI15379
I2573
sI15389
I2574
sI15424
I2575
sI15425
I2576
sI15426
I2577
sI15431
I2578
sI15442
I2579
sI15443
I2580
sI15445
I2581
sI15447
I2582
sI15448
I2583
sI15455
I2584
sI15476
I2585
sI15478
I2586
sI15480
I2587
sI15483
I2588
sI15498
I2589
sI15519
I2590
sI15524
I2591
sI15542
I2592
sI15569
I2593
sI15588
I2594
sI15604
I2595
sI15607
I2596
sI15612
I2597
sI15627
I2598
sI15635
I2599
sI15642
I2600
sI15643
I2601
sI15652
I2602
sI15665
I2603
sI15686
I2604
sI15704
I2605
sI15705
I2606
sI15713
I2607
sI15719
I2608
sI15727
I2609
sI15728
I2610
sI15737
I2611
sI15741
I2612
sI15748
I2613
sI15750
I2614
sI15751
I2615
sI15758
I2616
sI15768
I2617
sI15775
I2618
sI15788
I2619
sI15793
I2620
sI15798
I2621
sI15799
I2622
sI15804
I2623
sI15806
I2624
sI15823
I2625
sI15826
I2626
sI34352
I5728
sI15845
I2627
sI15848
I2628
sI15862
I2629
sI15864
I2630
sI15865
I2631
sI15868
I2632
sI15872
I2633
sI15878
I2634
sI15882
I2635
sI15900
I2636
sI15914
I2637
sI15928
I2638
sI15932
I2639
sI15935
I2640
sI15937
I2641
sI15938
I2642
sI15945
I2643
sI15946
I2644
sI15951
I2645
sI15961
I2646
sI15982
I2647
sI15989
I2648
sI15995
I2649
sI16002
I2650
sI16006
I2651
sI16010
I2652
sI35437
I5904
sI16022
I2653
sI16024
I2654
sI16027
I2655
sI16028
I2656
sI16056
I2657
sI16057
I2658
sI16060
I2659
sI16063
I2660
sI16067
I2661
sI16082
I2662
sI16088
I2663
sI16091
I2664
sI16093
I2665
sI16096
I2666
sI16102
I2667
sI16112
I2668
sI16125
I2669
sI16130
I2670
sI16156
I2671
sI16189
I2672
sI35468
I5907
sI16202
I2673
sI16203
I2674
sI16208
I2675
sI16214
I2676
sI16223
I2677
sI16229
I2678
sI16236
I2679
sI35477
I5910
sI16258
I2680
sI16279
I2681
sI16282
I2682
sI16293
I2683
sI16294
I2684
sI16301
I2685
sI16310
I2686
sI16312
I2687
sI16315
I2688
sI16326
I2689
sI16337
I2690
sI16339
I2691
sI16349
I2692
sI16351
I2693
sI16352
I2694
sI35495
I5912
sI16364
I2695
sI16370
I2696
sI16384
I2697
sI16388
I2698
sI16407
I2699
sI16408
I2700
sI16415
I2701
sI35504
I5914
sI16424
I2702
sI16429
I2703
sI16431
I2704
sI16432
I2705
sI16444
I2706
sI16451
I2707
sI16455
I2708
sI16482
I2709
sI16485
I2710
sI16486
I2711
sI16503
I2712
sI16505
I2713
sI16512
I2714
sI16515
I2715
sI16517
I2716
sI16518
I2717
sI16523
I2718
sI16546
I2719
sI16556
I2720
sI16563
I2721
sI16566
I2722
sI16602
I2723
sI16604
I2724
sI16606
I2725
sI16610
I2726
sI16613
I2727
sI16639
I2728
sI16643
I2729
sI16650
I2730
sI16651
I2731
sI16655
I2732
sI16660
I2733
sI16665
I2734
sI16670
I2735
sI16675
I2736
sI16677
I2737
sI16697
I2738
sI16708
I2739
sI16709
I2740
sI16710
I2741
sI16711
I2742
sI16716
I2743
sI16737
I2744
sI16740
I2745
sI16744
I2746
sI16757
I2747
sI16762
I2748
sI16792
I2749
sI16802
I2750
sI16803
I2751
sI16818
I2752
sI16822
I2753
sI16832
I2754
sI16834
I2755
sI16839
I2756
sI16840
I2757
sI16844
I2758
sI16877
I2759
sI16880
I2760
sI16881
I2761
sI16882
I2762
sI16893
I2763
sI16896
I2764
sI16897
I2765
sI16906
I2766
sI16915
I2767
sI16918
I2768
sI16926
I2769
sI16929
I2770
sI16935
I2771
sI16940
I2772
sI16950
I2773
sI16966
I2774
sI16973
I2775
sI16980
I2776
sI16990
I2777
sI16992
I2778
sI17008
I2779
sI17011
I2780
sI17020
I2781
sI35605
I5922
sI17033
I2782
sI17048
I2783
sI17056
I2784
sI17057
I2785
sI17058
I2786
sI17062
I2787
sI17064
I2788
sI17066
I2789
sI17072
I2790
sI17078
I2791
sI17082
I2792
sI17083
I2793
sI35616
I5924
sI17102
I2794
sI17103
I2795
sI17105
I2796
sI17109
I2797
sI17111
I2798
sI17117
I2799
sI17118
I2800
sI17125
I2801
sI17127
I2802
sI17135
I2803
sI17168
I2804
sI17174
I2805
sI17177
I2806
sI17178
I2807
sI17181
I2808
sI17184
I2809
sI17186
I2810
sI17189
I2811
sI17194
I2812
sI17199
I2813
sI17202
I2814
sI17215
I2815
sI17227
I2816
sI17231
I2817
sI17239
I2818
sI17241
I2819
sI17245
I2820
sI17251
I2821
sI17260
I2822
sI17262
I2823
sI17288
I2824
sI17289
I2825
sI17296
I2826
sI17297
I2827
sI17313
I2828
sI17331
I2829
sI17333
I2830
sI17336
I2831
sI17341
I2832
sI17359
I2833
sI17363
I2834
sI17369
I2835
sI17374
I2836
sI17375
I2837
sI17377
I2838
sI17379
I2839
sI17385
I2840
sI17388
I2841
sI17401
I2842
sI17404
I2843
sI17405
I2844
sI17407
I2845
sI17408
I2846
sI17415
I2847
sI17420
I2848
sI17425
I2849
sI17431
I2850
sI17433
I2851
sI17441
I2852
sI17476
I2853
sI17477
I2854
sI17483
I2855
sI17491
I2856
sI17499
I2857
sI17505
I2858
sI17507
I2859
sI17509
I2860
sI17512
I2861
sI17529
I2862
sI17530
I2863
sI17533
I2864
sI17541
I2865
sI17542
I2866
sI17545
I2867
sI17564
I2868
sI17571
I2869
sI17580
I2870
sI17608
I2871
sI17640
I2872
sI17642
I2873
sI17645
I2874
sI17646
I2875
sI17674
I2876
sI17680
I2877
sI17685
I2878
sI17687
I2879
sI17688
I2880
sI17690
I2881
sI35718
I5932
sI17708
I2882
sI17717
I2883
sI17718
I2884
sI17720
I2885
sI17731
I2886
sI17737
I2887
sI17745
I2888
sI17748
I2889
sI17751
I2890
sI17752
I2891
sI35727
I5938
sI17773
I2892
sI17776
I2893
sI17778
I2894
sI17788
I2895
sI17790
I2896
sI17798
I2897
sI17801
I2898
sI17807
I2899
sI17808
I2900
sI17816
I2901
sI17818
I2902
sI17823
I2903
sI17826
I2904
sI17829
I2905
sI17848
I2906
sI17851
I2907
sI17853
I2908
sI17864
I2909
sI17867
I2910
sI17871
I2911
sI17874
I2912
sI17886
I2913
sI17889
I2914
sI17892
I2915
sI17893
I2916
sI17895
I2917
sI17898
I2918
sI17907
I2919
sI17918
I2920
sI17926
I2921
sI17927
I2922
sI17928
I2923
sI17942
I2924
sI17946
I2925
sI35763
I5942
sI17985
I2926
sI17986
I2927
sI17988
I2928
sI17997
I2929
sI17998
I2930
sI17999
I2931
sI18000
I2932
sI18002
I2933
sI18004
I2934
sI18010
I2935
sI18033
I2936
sI18036
I2937
sI18037
I2938
sI18039
I2939
sI18040
I2940
sI18041
I2941
sI18043
I2942
sI18058
I2943
sI18066
I2944
sI18071
I2945
sI18072
I2946
sI18087
I2947
sI18088
I2948
sI18092
I2949
sI18110
I2950
sI18118
I2951
sI18123
I2952
sI18127
I2953
sI18142
I2954
sI18148
I2955
sI18149
I2956
sI18155
I2957
sI18167
I2958
sI18189
I2959
sI18191
I2960
sI18227
I2961
sI35806
I5947
sI18232
I2962
sI18237
I2963
sI18238
I2964
sI18242
I2965
sI18246
I2966
sI18251
I2967
sI18253
I2968
sI18255
I2969
sI18291
I2970
sI18315
I2971
sI18317
I2972
sI18322
I2973
sI18324
I2974
sI18325
I2975
sI18326
I2976
sI18329
I2977
sI18331
I2978
sI18333
I2979
sI18334
I2980
sI18335
I2981
sI18341
I2982
sI18343
I2983
sI18345
I2984
sI18346
I2985
sI18368
I2986
sI18371
I2987
sI18372
I2988
sI18387
I2989
sI18389
I2990
sI18400
I2991
sI18402
I2992
sI18408
I2993
sI18409
I2994
sI18413
I2995
sI18421
I2996
sI18422
I2997
sI18423
I2998
sI18424
I2999
sI18425
I3000
sI18435
I3001
sI18436
I3002
sI18440
I3003
sI18441
I3004
sI18442
I3005
sI18446
I3006
sI18455
I3007
sI18461
I3008
sI18469
I3009
sI18472
I3010
sI18477
I3011
sI18481
I3012
sI18482
I3013
sI18486
I3014
sI18494
I3015
sI18501
I3016
sI18506
I3017
sI18509
I3018
sI18512
I3019
sI18520
I3020
sI18521
I3021
sI18523
I3022
sI18529
I3023
sI18533
I3024
sI18545
I3025
sI18558
I3026
sI18562
I3027
sI18563
I3028
sI18565
I3029
sI18570
I3030
sI18578
I3031
sI18589
I3032
sI18591
I3033
sI18594
I3034
sI18600
I3035
sI18604
I3036
sI18616
I3037
sI18628
I3038
sI18632
I3039
sI18635
I3040
sI18636
I3041
sI18639
I3042
sI18640
I3043
sI18648
I3044
sI18654
I3045
sI18677
I3046
sI18678
I3047
sI18680
I3048
sI18694
I3049
sI18701
I3050
sI18706
I3051
sI18719
I3052
sI18721
I3053
sI18722
I3054
sI18724
I3055
sI18725
I3056
sI18726
I3057
sI18727
I3058
sI18729
I3059
sI18732
I3060
sI18733
I3061
sI18735
I3062
sI18752
I3063
sI18753
I3064
sI18754
I3065
sI18755
I3066
sI18756
I3067
sI18769
I3068
sI18773
I3069
sI18775
I3070
sI18777
I3071
sI18779
I3072
sI18780
I3073
sI18783
I3074
sI18792
I3075
sI18806
I3076
sI18813
I3077
sI18843
I3078
sI18846
I3079
sI18861
I3080
sI18864
I3081
sI18865
I3082
sI18866
I3083
sI18868
I3084
sI18872
I3085
sI18887
I3086
sI18888
I3087
sI18892
I3088
sI18893
I3089
sI18894
I3090
sI18895
I3091
sI18897
I3092
sI18899
I3093
sI18903
I3094
sI18909
I3095
sI18914
I3096
sI18915
I3097
sI18916
I3098
sI18921
I3099
sI35922
I5963
sI35925
I5965
sI18954
I3100
sI18962
I3101
sI18963
I3102
sI18973
I3103
sI18979
I3104
sI18981
I3105
sI35933
I5968
sI18997
I3106
sI18999
I3107
sI19005
I3108
sI19015
I3109
sI19018
I3110
sI19020
I3111
sI19029
I3112
sI19042
I3113
sI19043
I3114
sI19061
I3115
sI19063
I3116
sI19069
I3117
sI19073
I3118
sI19080
I3119
sI19084
I3120
sI19086
I3121
sI19093
I3122
sI19105
I3123
sI19121
I3124
sI19123
I3125
sI19125
I3126
sI19136
I3127
sI19141
I3128
sI19159
I3129
sI19162
I3130
sI19165
I3131
sI19166
I3132
sI19167
I3133
sI19171
I3134
sI19173
I3135
sI19174
I3136
sI19184
I3137
sI19191
I3138
sI19201
I3139
sI19216
I3140
sI19218
I3141
sI19220
I3142
sI19240
I3143
sI19241
I3144
sI19243
I3145
sI19244
I3146
sI19245
I3147
sI19275
I3148
sI19278
I3149
sI19283
I3150
sI19287
I3151
sI19289
I3152
sI19291
I3153
sI19301
I3154
sI19308
I3155
sI19309
I3156
sI19310
I3157
sI19316
I3158
sI35996
I5976
sI19372
I3159
sI19375
I3160
sI19382
I3161
sI19388
I3162
sI19404
I3163
sI19408
I3164
sI19411
I3165
sI19417
I3166
sI19422
I3167
sI19423
I3168
sI19424
I3169
sI19426
I3170
sI19432
I3171
sI19437
I3172
sI19439
I3173
sI19440
I3174
sI19442
I3175
sI19447
I3176
sI19448
I3177
sI19453
I3178
sI19465
I3179
sI19467
I3180
sI19468
I3181
sI19474
I3182
sI19478
I3183
sI19507
I3184
sI19512
I3185
sI19516
I3186
sI19517
I3187
sI19524
I3188
sI19538
I3189
sI19540
I3190
sI19541
I3191
sI19543
I3192
sI19544
I3193
sI19546
I3194
sI19557
I3195
sI19559
I3196
sI19566
I3197
sI19568
I3198
sI19578
I3199
sI19593
I3200
sI19606
I3201
sI19613
I3202
sI19615
I3203
sI19630
I3204
sI19659
I3205
sI19662
I3206
sI19664
I3207
sI19676
I3208
sI19686
I3209
sI19696
I3210
sI19697
I3211
sI19721
I3212
sI19747
I3213
sI19776
I3214
sI19784
I3215
sI19786
I3216
sI19791
I3217
sI19794
I3218
sI19795
I3219
sI19797
I3220
sI19809
I3221
sI19815
I3222
sI19816
I3223
sI19828
I3224
sI19831
I3225
sI19832
I3226
sI19836
I3227
sI19847
I3228
sI19856
I3229
sI19896
I3230
sI19897
I3231
sI19898
I3232
sI19901
I3233
sI19903
I3234
sI19904
I3235
sI19908
I3236
sI19911
I3237
sI19916
I3238
sI19917
I3239
sI19930
I3240
sI19932
I3241
sI19947
I3242
sI19975
I3243
sI19978
I3244
sI19981
I3245
sI20006
I3246
sI20008
I3247
sI20009
I3248
sI20011
I3249
sI20015
I3250
sI20023
I3251
sI20026
I3252
sI20029
I3253
sI20031
I3254
sI20033
I3255
sI20040
I3256
sI20046
I3257
sI20047
I3258
sI20067
I3259
sI20072
I3260
sI20075
I3261
sI20085
I3262
sI20088
I3263
sI20093
I3264
sI20094
I3265
sI20099
I3266
sI20112
I3267
sI20115
I3268
sI20120
I3269
sI20122
I3270
sI20124
I3271
sI20125
I3272
sI20127
I3273
sI20128
I3274
sI20133
I3275
sI20136
I3276
sI20141
I3277
sI20143
I3278
sI20145
I3279
sI36678
I6073
sI20154
I3280
sI20157
I3281
sI20158
I3282
sI20160
I3283
sI20162
I3284
sI20169
I3285
sI20177
I3286
sI20180
I3287
sI20181
I3288
sI20183
I3289
sI20191
I3290
sI20192
I3291
sI20193
I3292
sI20196
I3293
sI20201
I3294
sI20203
I3295
sI20211
I3296
sI20213
I3297
sI20223
I3298
sI20224
I3299
sI20226
I3300
sI20227
I3301
sI20228
I3302
sI20229
I3303
sI20232
I3304
sI20236
I3305
sI20238
I3306
sI36142
I5987
sI20249
I3307
sI20262
I3308
sI20264
I3309
sI20269
I3310
sI20286
I3311
sI20291
I3312
sI20314
I3313
sI20319
I3314
sI20320
I3315
sI20324
I3316
sI20325
I3317
sI20328
I3318
sI20330
I3319
sI20335
I3320
sI20339
I3321
sI20340
I3322
sI20343
I3323
sI20345
I3324
sI20349
I3325
sI20364
I3326
sI20367
I3327
sI20368
I3328
sI20370
I3329
sI20371
I3330
sI20382
I3331
sI20386
I3332
sI20387
I3333
sI20389
I3334
sI20391
I3335
sI20393
I3336
sI20398
I3337
sI20402
I3338
sI20406
I3339
sI20414
I3340
sI20415
I3341
sI20416
I3342
sI20418
I3343
sI20435
I3344
sI20437
I3345
sI20439
I3346
sI20441
I3347
sI20445
I3348
sI20450
I3349
sI20462
I3350
sI20468
I3351
sI20470
I3352
sI20471
I3353
sI20476
I3354
sI20483
I3355
sI20486
I3356
sI20488
I3357
sI20490
I3358
sI20491
I3359
sI20496
I3360
sI20516
I3361
sI20524
I3362
sI20527
I3363
sI20531
I3364
sI20534
I3365
sI20542
I3366
sI20543
I3367
sI20547
I3368
sI20553
I3369
sI20558
I3370
sI20568
I3371
sI20569
I3372
sI20572
I3373
sI20586
I3374
sI20589
I3375
sI20594
I3376
sI20600
I3377
sI20602
I3378
sI20605
I3379
sI20606
I3380
sI20611
I3381
sI20612
I3382
sI20615
I3383
sI20617
I3384
sI20619
I3385
sI20625
I3386
sI20627
I3387
sI20637
I3388
sI20645
I3389
sI20648
I3390
sI20650
I3391
sI20651
I3392
sI20654
I3393
sI20659
I3394
sI20660
I3395
sI33503
I5554
sI20663
I3396
sI20664
I3397
sI20665
I3398
sI20675
I3399
sI20690
I3400
sI20696
I3401
sI20698
I3402
sI20699
I3403
sI20705
I3404
sI20711
I3405
sI20712
I3406
sI20714
I3407
sI20716
I3408
sI20718
I3409
sI20719
I3410
sI20731
I3411
sI20762
I3412
sI20765
I3413
sI20767
I3414
sI20771
I3415
sI20778
I3416
sI20797
I3417
sI20803
I3418
sI20810
I3419
sI20812
I3420
sI20813
I3421
sI20815
I3422
sI20822
I3423
sI20824
I3424
sI20839
I3425
sI20840
I3426
sI20845
I3427
sI20846
I3428
sI20847
I3429
sI20849
I3430
sI20850
I3431
sI20854
I3432
sI20855
I3433
sI20856
I3434
sI20858
I3435
sI20859
I3436
sI20863
I3437
sI20866
I3438
sI20874
I3439
sI20885
I3440
sI20887
I3441
sI20895
I3442
sI20898
I3443
sI20899
I3444
sI20905
I3445
sI20911
I3446
sI20916
I3447
sI20917
I3448
sI20923
I3449
sI20943
I3450
sI20945
I3451
sI20947
I3452
sI20960
I3453
sI20962
I3454
sI20976
I3455
sI21003
I3456
sI21010
I3457
sI21015
I3458
sI21018
I3459
sI36271
I6012
sI21024
I3460
sI21042
I3461
sI21048
I3462
sI21055
I3463
sI21067
I3464
sI21068
I3465
sI21081
I3466
sI21091
I3467
sI21112
I3468
sI21121
I3469
sI21125
I3470
sI21157
I3471
sI21176
I3472
sI21177
I3473
sI21178
I3474
sI21181
I3475
sI21187
I3476
sI21194
I3477
sI21195
I3478
sI21198
I3479
sI21231
I3480
sI21232
I3481
sI21237
I3482
sI21242
I3483
sI21246
I3484
sI21247
I3485
sI21249
I3486
sI21259
I3487
sI21264
I3488
sI21266
I3489
sI21270
I3490
sI21271
I3491
sI21272
I3492
sI21275
I3493
sI21276
I3494
sI21287
I3495
sI21289
I3496
sI21333
I3497
sI21334
I3498
sI21335
I3499
sI21336
I3500
sI21337
I3501
sI21339
I3502
sI21341
I3503
sI21344
I3504
sI21351
I3505
sI21353
I3506
sI21355
I3507
sI21361
I3508
sI21371
I3509
sI36333
I6021
sI21393
I3510
sI21394
I3511
sI21401
I3512
sI21403
I3513
sI21417
I3514
sI21425
I3515
sI21428
I3516
sI21440
I3517
sI21445
I3518
sI21448
I3519
sI21449
I3520
sI21455
I3521
sI21484
I3522
sI21492
I3523
sI21494
I3524
sI21498
I3525
sI21504
I3526
sI21507
I3527
sI21510
I3528
sI21518
I3529
sI21528
I3530
sI21530
I3531
sI21531
I3532
sI21536
I3533
sI21537
I3534
sI21539
I3535
sI21543
I3536
sI21558
I3537
sI21559
I3538
sI21579
I3539
sI21599
I3540
sI21608
I3541
sI21624
I3542
sI21642
I3543
sI21645
I3544
sI21650
I3545
sI21655
I3546
sI21656
I3547
sI21666
I3548
sI36379
I6027
sI21683
I3549
sI21685
I3550
sI21686
I3551
sI21708
I3552
sI21709
I3553
sI21714
I3554
sI21727
I3555
sI21728
I3556
sI21731
I3557
sI21738
I3558
sI21744
I3559
sI21746
I3560
sI21752
I3561
sI21765
I3562
sI21771
I3563
sI21790
I3564
sI36401
I6028
sI21807
I3565
sI21810
I3566
sI21840
I3567
sI21852
I3568
sI21860
I3569
sI21868
I3570
sI21870
I3571
sI21877
I3572
sI21879
I3573
sI21881
I3574
sI21885
I3575
sI21886
I3576
sI21889
I3577
sI21891
I3578
sI21892
I3579
sI21894
I3580
sI21896
I3581
sI21899
I3582
sI21911
I3583
sI21920
I3584
sI21928
I3585
sI21934
I3586
sI21940
I3587
sI21942
I3588
sI21943
I3589
sI21944
I3590
sI21945
I3591
sI34945
I5832
sI21998
I3592
sI22000
I3593
sI22001
I3594
sI22006
I3595
sI22008
I3596
sI22015
I3597
sI22020
I3598
sI36438
I6032
sI22022
I3599
sI22026
I3600
sI22039
I3601
sI22040
I3602
sI22041
I3603
sI22043
I3604
sI22044
I3605
sI22063
I3606
sI22074
I3607
sI22078
I3608
sI22109
I3609
sI22110
I3610
sI22121
I3611
sI22125
I3612
sI22149
I3613
sI22152
I3614
sI22155
I3615
sI22156
I3616
sI22163
I3617
sI22166
I3618
sI22182
I3619
sI22183
I3620
sI22186
I3621
sI22192
I3622
sI22195
I3623
sI22196
I3624
sI22212
I3625
sI22219
I3626
sI22233
I3627
sI22235
I3628
sI22245
I3629
sI22256
I3630
sI22257
I3631
sI22261
I3632
sI22266
I3633
sI22275
I3634
sI22277
I3635
sI22287
I3636
sI22293
I3637
sI22295
I3638
sI22299
I3639
sI22305
I3640
sI22306
I3641
sI22308
I3642
sI22312
I3643
sI22325
I3644
sI22328
I3645
sI22338
I3646
sI22339
I3647
sI22343
I3648
sI22345
I3649
sI22348
I3650
sI22353
I3651
sI22361
I3652
sI22371
I3653
sI22378
I3654
sI22406
I3655
sI22408
I3656
sI22409
I3657
sI22411
I3658
sI22414
I3659
sI22422
I3660
sI22423
I3661
sI22424
I3662
sI22437
I3663
sI22438
I3664
sI22451
I3665
sI22468
I3666
sI22474
I3667
sI22502
I3668
sI22503
I3669
sI22515
I3670
sI22517
I3671
sI22520
I3672
sI22521
I3673
sI22522
I3674
sI22525
I3675
sI22526
I3676
sI22529
I3677
sI22539
I3678
sI22540
I3679
sI22559
I3680
sI22570
I3681
sI22573
I3682
sI22583
I3683
sI22590
I3684
sI22601
I3685
sI22609
I3686
sI22612
I3687
sI22614
I3688
sI22619
I3689
sI22621
I3690
sI22622
I3691
sI22634
I3692
sI22647
I3693
sI22649
I3694
sI22677
I3695
sI22690
I3696
sI22695
I3697
sI22702
I3698
sI22703
I3699
sI22715
I3700
sI22718
I3701
sI22720
I3702
sI22764
I3703
sI22766
I3704
sI22767
I3705
sI34583
I5766
sI22774
I3706
sI22780
I3707
sI22783
I3708
sI22790
I3709
sI22797
I3710
sI22798
I3711
sI22801
I3712
sI22809
I3713
sI22816
I3714
sI22821
I3715
sI22825
I3716
sI22832
I3717
sI22842
I3718
sI22843
I3719
sI22854
I3720
sI22857
I3721
sI22864
I3722
sI22873
I3723
sI22876
I3724
sI22886
I3725
sI22897
I3726
sI22901
I3727
sI22911
I3728
sI22914
I3729
sI22916
I3730
sI22919
I3731
sI22927
I3732
sI22928
I3733
sI22930
I3734
sI36590
I6056
sI37862
I6280
sI22942
I3735
sI22943
I3736
sI22954
I3737
sI22955
I3738
sI22956
I3739
sI36594
I6058
sI22962
I3740
sI22968
I3741
sI36596
I6059
sI22973
I3742
sI22974
I3743
sI22975
I3744
sI22979
I3745
sI22980
I3746
sI22983
I3747
sI22984
I3748
sI22990
I3749
sI22992
I3750
sI22994
I3751
sI22995
I3752
sI22998
I3753
sI23000
I3754
sI23008
I3755
sI23016
I3756
sI23061
I3757
sI23069
I3758
sI23070
I3759
sI23094
I3760
sI23101
I3761
sI23102
I3762
sI23103
I3763
sI23107
I3764
sI23109
I3765
sI23111
I3766
sI23120
I3767
sI23135
I3768
sI36624
I6066
sI23140
I3769
sI23141
I3770
sI23144
I3771
sI23145
I3772
sI23150
I3773
sI23151
I3774
sI23157
I3775
sI23185
I3776
sI23192
I3777
sI23199
I3778
sI23201
I3779
sI36636
I6067
sI23219
I3780
sI23231
I3781
sI23238
I3782
sI23244
I3783
sI23246
I3784
sI23248
I3785
sI23250
I3786
sI23258
I3787
sI36648
I6070
sI23287
I3788
sI23300
I3789
sI23309
I3790
sI23310
I3791
sI33510
I5557
sI23320
I3792
sI23321
I3793
sI23326
I3794
sI23328
I3795
sI23330
I3796
sI23333
I3797
sI23342
I3798
sI23343
I3799
sI23347
I3800
sI23352
I3801
sI23358
I3802
sI23377
I3803
sI23379
I3804
sI23385
I3805
sI23405
I3806
sI23406
I3807
sI23407
I3808
sI23412
I3809
sI23417
I3810
sI23418
I3811
sI23427
I3812
sI23431
I3813
sI23433
I3814
sI23437
I3815
sI23444
I3816
sI23446
I3817
sI23447
I3818
sI23448
I3819
sI23452
I3820
sI23454
I3821
sI23456
I3822
sI23457
I3823
sI23459
I3824
sI23461
I3825
sI23469
I3826
sI36680
I6075
sI23500
I3827
sI23501
I3828
sI23503
I3829
sI23504
I3830
sI23506
I3831
sI23525
I3832
sI23530
I3833
sI23537
I3834
sI23551
I3835
sI23552
I3836
sI23568
I3837
sI23572
I3838
sI23574
I3839
sI23582
I3840
sI23587
I3841
sI23595
I3842
sI23603
I3843
sI23609
I3844
sI23613
I3845
sI23618
I3846
sI23622
I3847
sI23624
I3848
sI35946
I5970
sI23633
I3849
sI23637
I3850
sI23643
I3851
sI23644
I3852
sI23650
I3853
sI23654
I3854
sI23675
I3855
sI36715
I6081
sI23690
I3856
sI23713
I3857
sI23723
I3858
sI36725
I6086
sI23751
I3859
sI23775
I3860
sI23830
I3861
sI23837
I3862
sI23844
I3863
sI23846
I3864
sI23847
I3865
sI23851
I3866
sI23852
I3867
sI23860
I3868
sI23861
I3869
sI23862
I3870
sI23865
I3871
sI23867
I3872
sI23877
I3873
sI23890
I3874
sI23903
I3875
sI23907
I3876
sI23910
I3877
sI23914
I3878
sI23915
I3879
sI23918
I3880
sI23929
I3881
sI23930
I3882
sI23935
I3883
sI36759
I6088
sI23948
I3884
sI23953
I3885
sI23956
I3886
sI23978
I3887
sI23981
I3888
sI23997
I3889
sI24000
I3890
sI33533
I5567
sI24004
I3891
sI24005
I3892
sI24010
I3893
sI24012
I3894
sI24013
I3895
sI24014
I3896
sI24041
I3897
sI24042
I3898
sI24067
I3899
sI24068
I3900
sI24070
I3901
sI24072
I3902
sI24074
I3903
sI24075
I3904
sI24076
I3905
sI24079
I3906
sI24080
I3907
sI24085
I3908
sI24090
I3909
sI24106
I3910
sI24124
I3911
sI24125
I3912
sI24128
I3913
sI24129
I3914
sI24131
I3915
sI24132
I3916
sI24134
I3917
sI24138
I3918
sI24150
I3919
sI36794
I6093
sI24162
I3920
sI24173
I3921
sI24184
I3922
sI24199
I3923
sI24200
I3924
sI24204
I3925
sI24205
I3926
sI24208
I3927
sI24209
I3928
sI24210
I3929
sI24211
I3930
sI24213
I3931
sI24214
I3932
sI24215
I3933
sI24217
I3934
sI24221
I3935
sI24223
I3936
sI24224
I3937
sI24225
I3938
sI24226
I3939
sI24228
I3940
sI24230
I3941
sI24252
I3942
sI24255
I3943
sI24265
I3944
sI24279
I3945
sI24281
I3946
sI24282
I3947
sI24299
I3948
sI24306
I3949
sI24307
I3950
sI24309
I3951
sI24317
I3952
sI24330
I3953
sI24331
I3954
sI24336
I3955
sI24347
I3956
sI24357
I3957
sI24373
I3958
sI24382
I3959
sI24407
I3960
sI24409
I3961
sI24411
I3962
sI24412
I3963
sI24415
I3964
sI24417
I3965
sI24419
I3966
sI24426
I3967
sI24427
I3968
sI24428
I3969
sI24429
I3970
sI24432
I3971
sI24433
I3972
sI24439
I3973
sI24445
I3974
sI24451
I3975
sI24452
I3976
sI24454
I3977
sI24457
I3978
sI24458
I3979
sI24472
I3980
sI24477
I3981
sI24479
I3982
sI24484
I3983
sI24492
I3984
sI24493
I3985
sI24495
I3986
sI24497
I3987
sI24499
I3988
sI24526
I3989
sI24528
I3990
sI24529
I3991
sI24530
I3992
sI24533
I3993
sI24536
I3994
sI24546
I3995
sI24548
I3996
sI24549
I3997
sI24550
I3998
sI24551
I3999
sI24552
I4000
sI24561
I4001
sI24565
I4002
sI24572
I4003
sI24574
I4004
sI24612
I4005
sI24613
I4006
sI24617
I4007
sI24636
I4008
sI24637
I4009
sI24638
I4010
sI24642
I4011
sI24650
I4012
sI24655
I4013
sI24658
I4014
sI24664
I4015
sI24666
I4016
sI24676
I4017
sI24685
I4018
sI24708
I4019
sI24709
I4020
sI24730
I4021
sI24731
I4022
sI24732
I4023
sI36891
I6105
sI24745
I4024
sI24749
I4025
sI24750
I4026
sI24767
I4027
sI24769
I4028
sI24771
I4029
sI24796
I4030
sI24798
I4031
sI37045
I6144
sI24811
I4032
sI24828
I4033
sI24833
I4034
sI24852
I4035
sI24883
I4036
sI24894
I4037
sI24902
I4038
sI24908
I4039
sI24910
I4040
sI24911
I4041
sI24912
I4042
sI24915
I4043
sI24919
I4044
sI24920
I4045
sI24922
I4046
sI24927
I4047
sI24949
I4048
sI24950
I4049
sI24954
I4050
sI24956
I4051
sI24959
I4052
sI24969
I4053
sI24978
I4054
sI24979
I4055
sI24990
I4056
sI24995
I4057
sI24998
I4058
sI25003
I4059
sI25009
I4060
sI25013
I4061
sI25021
I4062
sI25024
I4063
sI25029
I4064
sI25031
I4065
sI25034
I4066
sI25036
I4067
sI25041
I4068
sI25042
I4069
sI25045
I4070
sI25048
I4071
sI25068
I4072
sI36842
I6099
sI25092
I4073
sI25099
I4074
sI25100
I4075
sI25110
I4076
sI25125
I4077
sI25128
I4078
sI36956
I6118
sI25135
I4079
sI25140
I4080
sI25141
I4081
sI25146
I4082
sI25152
I4083
sI25159
I4084
sI25182
I4085
sI25183
I4086
sI25186
I4087
sI25189
I4088
sI25190
I4089
sI25194
I4090
sI25200
I4091
sI25204
I4092
sI25211
I4093
sI25214
I4094
sI25223
I4095
sI25236
I4096
sI25243
I4097
sI25245
I4098
sI25247
I4099
sI25248
I4100
sI25253
I4101
sI25256
I4102
sI25263
I4103
sI25265
I4104
sI25266
I4105
sI25272
I4106
sI25273
I4107
sI25275
I4108
sI25277
I4109
sI25284
I4110
sI25290
I4111
sI25291
I4112
sI25292
I4113
sI25294
I4114
sI25295
I4115
sI25301
I4116
sI25304
I4117
sI25337
I4118
sI25349
I4119
sI25351
I4120
sI25359
I4121
sI25361
I4122
sI25367
I4123
sI25369
I4124
sI25370
I4125
sI25381
I4126
sI25383
I4127
sI25388
I4128
sI25396
I4129
sI25400
I4130
sI25412
I4131
sI25417
I4132
sI25421
I4133
sI25422
I4134
sI25433
I4135
sI25441
I4136
sI25442
I4137
sI25461
I4138
sI25462
I4139
sI25469
I4140
sI25494
I4141
sI25505
I4142
sI37019
I6133
sI25535
I4143
sI25536
I4144
sI25548
I4145
sI25572
I4146
sI25579
I4147
sI25580
I4148
sI25581
I4149
sI25590
I4150
sI25594
I4151
sI25599
I4152
sI25622
I4153
sI25629
I4154
sI25630
I4155
sI25632
I4156
sI25633
I4157
sI25635
I4158
sI25638
I4159
sI25643
I4160
sI25646
I4161
sI25648
I4162
sI37044
I6143
sI25662
I4163
sI25663
I4164
sI25667
I4165
sI25693
I4166
sI37051
I6147
sI25708
I4167
sI25709
I4168
sI25713
I4169
sI25728
I4170
sI25729
I4171
sI25731
I4172
sI25748
I4173
sI25770
I4174
sI25771
I4175
sI25775
I4176
sI25776
I4177
sI37064
I6148
sI25786
I4178
sI25790
I4179
sI25794
I4180
sI25821
I4181
sI25825
I4182
sI25832
I4183
sI25833
I4184
sI25854
I4185
sI25855
I4186
sI25875
I4187
sI25876
I4188
sI25877
I4189
sI25885
I4190
sI25894
I4191
sI25895
I4192
sI36870
I6102
sI25919
I4193
sI25931
I4194
sI25937
I4195
sI25939
I4196
sI25943
I4197
sI25966
I4198
sI25971
I4199
sI25973
I4200
sI25978
I4201
sI25979
I4202
sI25989
I4203
sI25990
I4204
sI26007
I4205
sI26016
I4206
sI26023
I4207
sI26029
I4208
sI26045
I4209
sI26055
I4210
sI26057
I4211
sI26059
I4212
sI26066
I4213
sI37117
I6158
sI26097
I4214
sI26099
I4215
sI26103
I4216
sI26106
I4217
sI26121
I4218
sI26123
I4219
sI26127
I4220
sI26131
I4221
sI26134
I4222
sI26135
I4223
sI26136
I4224
sI26138
I4225
sI26139
I4226
sI26142
I4227
sI26148
I4228
sI26153
I4229
sI26167
I4230
sI26169
I4231
sI26172
I4232
sI26175
I4233
sI26177
I4234
sI26181
I4235
sI26189
I4236
sI26191
I4237
sI26192
I4238
sI26194
I4239
sI26196
I4240
sI26198
I4241
sI26199
I4242
sI26204
I4243
sI26216
I4244
sI26222
I4245
sI36618
I6063
sI26235
I4246
sI26254
I4247
sI26256
I4248
sI26263
I4249
sI26265
I4250
sI26267
I4251
sI26286
I4252
sI26289
I4253
sI26295
I4254
sI26297
I4255
sI26299
I4256
sI26304
I4257
sI26309
I4258
sI26310
I4259
sI26319
I4260
sI26331
I4261
sI26338
I4262
sI26339
I4263
sI26340
I4264
sI26345
I4265
sI26351
I4266
sI26352
I4267
sI26355
I4268
sI26358
I4269
sI26360
I4270
sI26367
I4271
sI26373
I4272
sI26410
I4273
sI26413
I4274
sI26415
I4275
sI26420
I4276
sI26425
I4277
sI26432
I4278
sI26434
I4279
sI26436
I4280
sI26451
I4281
sI26452
I4282
sI26456
I4283
sI26458
I4284
sI37178
I6171
sI26471
I4285
sI26479
I4286
sI26484
I4287
sI26488
I4288
sI26489
I4289
sI26492
I4290
sI26493
I4291
sI26496
I4292
sI26497
I4293
sI26503
I4294
sI26504
I4295
sI26505
I4296
sI26508
I4297
sI26509
I4298
sI26510
I4299
sI26511
I4300
sI26516
I4301
sI26523
I4302
sI26526
I4303
sI26527
I4304
sI26549
I4305
sI26553
I4306
sI26562
I4307
sI26566
I4308
sI26570
I4309
sI26571
I4310
sI26578
I4311
sI26584
I4312
sI26587
I4313
sI26590
I4314
sI26598
I4315
sI26600
I4316
sI26604
I4317
sI26610
I4318
sI26611
I4319
sI26620
I4320
sI26621
I4321
sI26623
I4322
sI26624
I4323
sI26628
I4324
sI26637
I4325
sI26684
I4326
sI26700
I4327
sI26707
I4328
sI26708
I4329
sI26709
I4330
sI26718
I4331
sI26721
I4332
sI26735
I4333
sI26752
I4334
sI26753
I4335
sI26755
I4336
sI26759
I4337
sI26764
I4338
sI26775
I4339
sI26785
I4340
sI26786
I4341
sI26788
I4342
sI26789
I4343
sI26790
I4344
sI26800
I4345
sI26805
I4346
sI26807
I4347
sI26809
I4348
sI26812
I4349
sI26814
I4350
sI26815
I4351
sI26819
I4352
sI26821
I4353
sI26822
I4354
sI26829
I4355
sI26830
I4356
sI26835
I4357
sI26836
I4358
sI26838
I4359
sI26844
I4360
sI26846
I4361
sI26849
I4362
sI26852
I4363
sI26854
I4364
sI26860
I4365
sI26863
I4366
sI26878
I4367
sI26888
I4368
sI26890
I4369
sI26891
I4370
sI26892
I4371
sI26897
I4372
sI26898
I4373
sI26909
I4374
sI26912
I4375
sI26933
I4376
sI26935
I4377
sI26940
I4378
sI26941
I4379
sI26942
I4380
sI26945
I4381
sI26951
I4382
sI26955
I4383
sI26959
I4384
sI26967
I4385
sI26968
I4386
sI26969
I4387
sI26970
I4388
sI26975
I4389
sI26976
I4390
sI26977
I4391
sI26981
I4392
sI26984
I4393
sI26992
I4394
sI27002
I4395
sI27004
I4396
sI27011
I4397
sI27013
I4398
sI27017
I4399
sI27018
I4400
sI27019
I4401
sI27023
I4402
sI27025
I4403
sI27029
I4404
sI27049
I4405
sI27050
I4406
sI27051
I4407
sI27052
I4408
sI27058
I4409
sI27062
I4410
sI27067
I4411
sI27070
I4412
sI27071
I4413
sI27073
I4414
sI27075
I4415
sI27079
I4416
sI27089
I4417
sI27100
I4418
sI27103
I4419
sI27105
I4420
sI27109
I4421
sI27122
I4422
sI27123
I4423
sI27127
I4424
sI27132
I4425
sI27136
I4426
sI27142
I4427
sI27145
I4428
sI27146
I4429
sI27147
I4430
sI27148
I4431
sI27149
I4432
sI27150
I4433
sI27152
I4434
sI27158
I4435
sI27159
I4436
sI27164
I4437
sI27166
I4438
sI27185
I4439
sI27186
I4440
sI27187
I4441
sI27188
I4442
sI27196
I4443
sI27198
I4444
sI27200
I4445
sI27202
I4446
sI27221
I4447
sI27222
I4448
sI27225
I4449
sI27228
I4450
sI27241
I4451
sI27249
I4452
sI27250
I4453
sI27252
I4454
sI27259
I4455
sI27261
I4456
sI27262
I4457
sI27267
I4458
sI27269
I4459
sI27280
I4460
sI27281
I4461
sI27287
I4462
sI27288
I4463
sI37316
I6190
sI27290
I4464
sI27294
I4465
sI27303
I4466
sI27306
I4467
sI27347
I4468
sI27349
I4469
sI37330
I6191
sI27376
I4470
sI27380
I4471
sI27382
I4472
sI27385
I4473
sI27387
I4474
sI27389
I4475
sI27391
I4476
sI27392
I4477
sI27393
I4478
sI27394
I4479
sI27396
I4480
sI27413
I4481
sI27414
I4482
sI27415
I4483
sI27433
I4484
sI27465
I4485
sI27466
I4486
sI27473
I4487
sI27481
I4488
sI27496
I4489
sI27502
I4490
sI27504
I4491
sI27506
I4492
sI27507
I4493
sI27514
I4494
sI27516
I4495
sI27517
I4496
sI27521
I4497
sI27529
I4498
sI27533
I4499
sI37359
I6198
sI27561
I4500
sI27576
I4501
sI27579
I4502
sI27580
I4503
sI27584
I4504
sI27590
I4505
sI27602
I4506
sI27608
I4507
sI27612
I4508
sI27618
I4509
sI27630
I4510
sI27633
I4511
sI27636
I4512
sI27645
I4513
sI27650
I4514
sI27651
I4515
sI37377
I6201
sI27673
I4516
sI27674
I4517
sI27686
I4518
sI27689
I4519
sI27693
I4520
sI27694
I4521
sI27708
I4522
sI27709
I4523
sI27720
I4524
sI27725
I4525
sI27726
I4526
sI27734
I4527
sI27740
I4528
sI27744
I4529
sI27749
I4530
sI27750
I4531
sI27764
I4532
sI27771
I4533
sI27772
I4534
sI27774
I4535
sI27777
I4536
sI27780
I4537
sI27781
I4538
sI27786
I4539
sI27787
I4540
sI27790
I4541
sI27795
I4542
sI27807
I4543
sI27808
I4544
sI27810
I4545
sI27824
I4546
sI27834
I4547
sI27847
I4548
sI27852
I4549
sI27860
I4550
sI27864
I4551
sI27865
I4552
sI27867
I4553
sI27871
I4554
sI27872
I4555
sI27876
I4556
sI27883
I4557
sI27884
I4558
sI27887
I4559
sI27889
I4560
sI27902
I4561
sI27917
I4562
sI27920
I4563
sI27921
I4564
sI27930
I4565
sI27937
I4566
sI27959
I4567
sI27966
I4568
sI27971
I4569
sI27974
I4570
sI27979
I4571
sI27980
I4572
sI27984
I4573
sI27986
I4574
sI27996
I4575
sI28000
I4576
sI28004
I4577
sI28011
I4578
sI28017
I4579
sI28019
I4580
sI28023
I4581
sI28024
I4582
sI28025
I4583
sI28028
I4584
sI28031
I4585
sI28032
I4586
sI28034
I4587
sI28053
I4588
sI28064
I4589
sI28077
I4590
sI28088
I4591
sI28099
I4592
sI28100
I4593
sI28103
I4594
sI28104
I4595
sI28109
I4596
sI28111
I4597
sI28112
I4598
sI28116
I4599
sI28117
I4600
sI28118
I4601
sI28119
I4602
sI28124
I4603
sI28126
I4604
sI28144
I4605
sI28148
I4606
sI37460
I6207
sI28158
I4607
sI28162
I4608
sI28167
I4609
sI28169
I4610
sI28170
I4611
sI28176
I4612
sI28181
I4613
sI28195
I4614
sI28198
I4615
sI28202
I4616
sI28205
I4617
sI28212
I4618
sI28214
I4619
sI28215
I4620
sI28216
I4621
sI28224
I4622
sI28227
I4623
sI28228
I4624
sI28239
I4625
sI28259
I4626
sI37481
I6211
sI28282
I4627
sI28288
I4628
sI28289
I4629
sI37483
I6212
sI28292
I4630
sI28297
I4631
sI28300
I4632
sI28320
I4633
sI28333
I4634
sI28335
I4635
sI28338
I4636
sI28350
I4637
sI28351
I4638
sI28352
I4639
sI28359
I4640
sI28365
I4641
sI28380
I4642
sI28388
I4643
sI28390
I4644
sI28391
I4645
sI28393
I4646
sI28394
I4647
sI28396
I4648
sI28398
I4649
sI28408
I4650
sI28417
I4651
sI28418
I4652
sI28423
I4653
sI28424
I4654
sI28428
I4655
sI28429
I4656
sI28439
I4657
sI28443
I4658
sI28447
I4659
sI28448
I4660
sI28452
I4661
sI28453
I4662
sI28454
I4663
sI28462
I4664
sI28473
I4665
sI28485
I4666
sI28489
I4667
sI28499
I4668
sI28522
I4669
sI28524
I4670
sI28530
I4671
sI28543
I4672
sI28544
I4673
sI28545
I4674
sI28546
I4675
sI28547
I4676
sI28548
I4677
sI28549
I4678
sI28550
I4679
sI28556
I4680
sI28560
I4681
sI28563
I4682
sI28564
I4683
sI28566
I4684
sI28579
I4685
sI28583
I4686
sI28586
I4687
sI28587
I4688
sI28589
I4689
sI28606
I4690
sI28610
I4691
sI28611
I4692
sI28612
I4693
sI28614
I4694
sI28617
I4695
sI28619
I4696
sI28622
I4697
sI37539
I6221
sI28629
I4698
sI28631
I4699
sI28632
I4700
sI28658
I4701
sI28659
I4702
sI28660
I4703
sI28662
I4704
sI28679
I4705
sI28689
I4706
sI28701
I4707
sI28702
I4708
sI28714
I4709
sI28716
I4710
sI28717
I4711
sI28732
I4712
sI28735
I4713
sI28741
I4714
sI28747
I4715
sI28748
I4716
sI28749
I4717
sI28762
I4718
sI28763
I4719
sI28764
I4720
sI28776
I4721
sI28778
I4722
sI28783
I4723
sI28784
I4724
sI28785
I4725
sI28787
I4726
sI28788
I4727
sI28789
I4728
sI28802
I4729
sI28803
I4730
sI28805
I4731
sI28806
I4732
sI28812
I4733
sI28815
I4734
sI28823
I4735
sI28833
I4736
sI28834
I4737
sI28836
I4738
sI28842
I4739
sI28843
I4740
sI28846
I4741
sI28847
I4742
sI28849
I4743
sI28852
I4744
sI28854
I4745
sI28855
I4746
sI28873
I4747
sI28874
I4748
sI28878
I4749
sI28881
I4750
sI28897
I4751
sI28899
I4752
sI28901
I4753
sI28903
I4754
sI37586
I6231
sI28910
I4755
sI28912
I4756
sI28917
I4757
sI28922
I4758
sI28923
I4759
sI28925
I4760
sI28926
I4761
sI28938
I4762
sI28940
I4763
sI28941
I4764
sI28945
I4765
sI28952
I4766
sI28955
I4767
sI28956
I4768
sI28968
I4769
sI28971
I4770
sI28972
I4771
sI28974
I4772
sI28976
I4773
sI28979
I4774
sI28980
I4775
sI28985
I4776
sI28986
I4777
sI28989
I4778
sI28990
I4779
sI28992
I4780
sI28998
I4781
sI28999
I4782
sI29000
I4783
sI29010
I4784
sI29011
I4785
sI29014
I4786
sI29018
I4787
sI29020
I4788
sI29024
I4789
sI29026
I4790
sI29040
I4791
sI29042
I4792
sI29051
I4793
sI29056
I4794
sI29062
I4795
sI29063
I4796
sI29064
I4797
sI29073
I4798
sI29088
I4799
sI29089
I4800
sI29090
I4801
sI29091
I4802
sI29102
I4803
sI29106
I4804
sI29107
I4805
sI29108
I4806
sI29109
I4807
sI29111
I4808
sI29112
I4809
sI29116
I4810
sI29117
I4811
sI29137
I4812
sI29140
I4813
sI29149
I4814
sI29152
I4815
sI29155
I4816
sI29158
I4817
sI29173
I4818
sI29222
I4819
sI29227
I4820
sI29242
I4821
sI29248
I4822
sI29251
I4823
sI29256
I4824
sI29259
I4825
sI29260
I4826
sI29276
I4827
sI29283
I4828
sI29284
I4829
sI29303
I4830
sI29310
I4831
sI29315
I4832
sI29319
I4833
sI29325
I4834
sI29327
I4835
sI29330
I4836
sI29331
I4837
sI29336
I4838
sI29337
I4839
sI29355
I4840
sI29361
I4841
sI29381
I4842
sI37665
I6242
sI29385
I4843
sI29398
I4844
sI29400
I4845
sI29402
I4846
sI29403
I4847
sI37669
I6244
sI29408
I4848
sI29410
I4849
sI29416
I4850
sI29418
I4851
sI29431
I4852
sI29440
I4853
sI29447
I4854
sI29462
I4855
sI29466
I4856
sI29467
I4857
sI29475
I4858
sI29476
I4859
sI29482
I4860
sI37686
I6248
sI29513
I4861
sI29519
I4862
sI29522
I4863
sI29533
I4864
sI29534
I4865
sI29542
I4866
sI29552
I4867
sI29559
I4868
sI29580
I4869
sI29592
I4870
sI29595
I4871
sI29606
I4872
sI29623
I4873
sI29627
I4874
sI29628
I4875
sI37950
I6297
sI29631
I4876
sI29635
I4877
sI29645
I4878
sI29648
I4879
sI29664
I4880
sI29677
I4881
sI29678
I4882
sI29679
I4883
sI29685
I4884
sI29707
I4885
sI29710
I4886
sI29712
I4887
sI29714
I4888
sI29716
I4889
sI29717
I4890
sI29718
I4891
sI29720
I4892
sI29725
I4893
sI29726
I4894
sI29728
I4895
sI29729
I4896
sI29734
I4897
sI29736
I4898
sI29738
I4899
sI29739
I4900
sI29740
I4901
sI29742
I4902
sI29746
I4903
sI29755
I4904
sI29757
I4905
sI29762
I4906
sI29763
I4907
sI29764
I4908
sI29767
I4909
sI29788
I4910
sI29797
I4911
sI29815
I4912
sI29816
I4913
sI29817
I4914
sI29822
I4915
sI29829
I4916
sI29834
I4917
sI37742
I6253
sI29849
I4918
sI29854
I4919
sI29861
I4920
sI29864
I4921
sI29870
I4922
sI29874
I4923
sI29878
I4924
sI29879
I4925
sI29882
I4926
sI29884
I4927
sI29886
I4928
sI29889
I4929
sI29899
I4930
sI29902
I4931
sI29906
I4932
sI29909
I4933
sI29913
I4934
sI29918
I4935
sI29943
I4936
sI29947
I4937
sI29950
I4938
sI29959
I4939
sI29963
I4940
sI29964
I4941
sI29969
I4942
sI29971
I4943
sI29989
I4944
sI29991
I4945
sI29992
I4946
sI29994
I4947
sI30022
I4948
sI30033
I4949
sI30035
I4950
sI30039
I4951
sI30053
I4952
sI30060
I4953
sI30068
I4954
sI30078
I4955
sI30080
I4956
sI30084
I4957
sI30085
I4958
sI30092
I4959
sI37784
I6260
sI30103
I4960
sI30107
I4961
sI30114
I4962
sI30117
I4963
sI30119
I4964
sI30127
I4965
sI37790
I6261
sI30140
I4966
sI30144
I4967
sI30145
I4968
sI30160
I4969
sI30163
I4970
sI30164
I4971
sI37797
I6264
sI30179
I4972
sI30181
I4973
sI30188
I4974
sI30190
I4975
sI30194
I4976
sI30195
I4977
sI30202
I4978
sI30203
I4979
sI30206
I4980
sI30207
I4981
sI30216
I4982
sI30217
I4983
sI30230
I4984
sI30232
I4985
sI30235
I4986
sI30239
I4987
sI30243
I4988
sI30253
I4989
sI30257
I4990
sI30259
I4991
sI30260
I4992
sI30279
I4993
sI30280
I4994
sI30281
I4995
sI30283
I4996
sI30292
I4997
sI30300
I4998
sI30302
I4999
sI30316
I5000
sI30322
I5001
sI30340
I5002
sI30342
I5003
sI30344
I5004
sI30363
I5005
sI30401
I5006
sI30427
I5007
sI30428
I5008
sI30439
I5009
sI30440
I5010
sI30444
I5011
sI37842
I6276
sI30451
I5012
sI37845
I6277
sI30464
I5013
sI30466
I5014
sI30472
I5015
sI30480
I5016
sI30484
I5017
sI30488
I5018
sI30493
I5019
sI30494
I5020
sI30497
I5021
sI30500
I5022
sI30507
I5023
sI30508
I5024
sI30513
I5025
sI30525
I5026
sI30531
I5027
sI30532
I5028
sI30534
I5029
sI30535
I5030
sI30536
I5031
sI30537
I5032
sI30538
I5033
sI30540
I5034
sI30541
I5035
sI30557
I5036
sI30564
I5037
sI30565
I5038
sI30591
I5039
sI30634
I5040
sI30637
I5041
sI30640
I5042
sI30643
I5043
sI30647
I5044
sI30680
I5045
sI30681
I5046
sI30686
I5047
sI30700
I5048
sI30704
I5049
sI30713
I5050
sI30714
I5051
sI30715
I5052
sI30716
I5053
sI30717
I5054
sI30723
I5055
sI30727
I5056
sI30732
I5057
sI30746
I5058
sI30749
I5059
sI30750
I5060
sI30752
I5061
sI30753
I5062
sI30757
I5063
sI30759
I5064
sI30760
I5065
sI30774
I5066
sI30776
I5067
sI30777
I5068
sI30780
I5069
sI30783
I5070
sI30787
I5071
sI30793
I5072
sI30794
I5073
sI30795
I5074
sI30796
I5075
sI30802
I5076
sI30804
I5077
sI30805
I5078
sI30806
I5079
sI30811
I5080
sI30817
I5081
sI30827
I5082
sI30831
I5083
sI30833
I5084
sI30835
I5085
sI30836
I5086
sI30840
I5087
sI30843
I5088
sI30852
I5089
sI30862
I5090
sI30864
I5091
sI30871
I5092
sI30882
I5093
sI30885
I5094
sI30895
I5095
sI30896
I5096
sI30904
I5097
sI30907
I5098
sI30925
I5099
sI30926
I5100
sI30932
I5101
sI30933
I5102
sI30935
I5103
sI30938
I5104
sI30940
I5105
sI30945
I5106
sI37926
I6293
sI37927
I6294
sI30962
I5107
sI30965
I5108
sI30974
I5109
sI30976
I5110
sI30983
I5111
sI30991
I5112
sI30994
I5113
sI30996
I5114
sI31000
I5115
sI31006
I5116
sI31019
I5117
sI31026
I5118
sI31036
I5119
sI31057
I5120
sI31058
I5121
sI31061
I5122
sI31073
I5123
sI31078
I5124
sI31093
I5125
sI31095
I5126
sI31102
I5127
sI31104
I5128
sI31106
I5129
sI31117
I5130
sI31122
I5131
sI37955
I6298
sI31126
I5132
sI31131
I5133
sI31140
I5134
sI31141
I5135
sI31142
I5136
sI31147
I5137
sI31149
I5138
sI31153
I5139
sI31163
I5140
sI31165
I5141
sI31169
I5142
sI31171
I5143
sI31174
I5144
sI31177
I5145
sI31183
I5146
sI31185
I5147
sI31186
I5148
sI31192
I5149
sI31199
I5150
sI31203
I5151
sI31205
I5152
sI31207
I5153
sI31209
I5154
sI31212
I5155
sI31228
I5156
sI31251
I5157
sI31257
I5158
sI31287
I5159
sI31296
I5160
sI33776
I5610
sI31306
I5161
sI31308
I5162
sI31311
I5163
sI37050
I6146
sI31322
I5164
sI31325
I5165
sI31329
I5166
sI31330
I5167
sI31331
I5168
sI31333
I5169
sI31338
I5170
sI31340
I5171
sI31341
I5172
sI31347
I5173
sI31352
I5174
sI31379
I5175
sI31387
I5176
sI31388
I5177
sI31395
I5178
sI31396
I5179
sI31408
I5180
sI31421
I5181
sI31422
I5182
sI31424
I5183
sI31427
I5184
sI31430
I5185
sI31437
I5186
sI31448
I5187
sI31456
I5188
sI31462
I5189
sI31464
I5190
sI31466
I5191
sI31471
I5192
sI31472
I5193
sI31476
I5194
sI31479
I5195
sI31486
I5196
sI31495
I5197
sI31496
I5198
sI31499
I5199
sI31501
I5200
sI31508
I5201
sI31510
I5202
sI31514
I5203
sI31532
I5204
sI31547
I5205
sI31568
I5206
sI31570
I5207
sI31594
I5208
sI31599
I5209
sI31608
I5210
sI31618
I5211
sI31631
I5212
sI31632
I5213
sI31644
I5214
sI31654
I5215
sI31656
I5216
sI31670
I5217
sI31672
I5218
sI31675
I5219
sI31688
I5220
sI31695
I5221
sI31701
I5222
sI31722
I5223
sI31726
I5224
sI31728
I5225
sI31736
I5226
sI31744
I5227
sI31763
I5228
sI31774
I5229
sI31776
I5230
sI31782
I5231
sI31854
I5232
sI31869
I5233
sI31881
I5234
sI31886
I5235
sI31890
I5236
sI31905
I5237
sI31909
I5238
sI31913
I5239
sI31918
I5240
sI31924
I5241
sI31926
I5242
sI31937
I5243
sI31941
I5244
sI31947
I5245
sI31954
I5246
sI31955
I5247
sI31957
I5248
sI31961
I5249
sI31966
I5250
sI31968
I5251
sI31970
I5252
sI31976
I5253
sI31983
I5254
sI31995
I5255
sI31998
I5256
sI31999
I5257
sI32000
I5258
sI32001
I5259
sI32002
I5260
sI32003
I5261
sI32004
I5262
sI32007
I5263
sI32011
I5264
sI32015
I5265
sI32023
I5266
sI32028
I5267
sI32030
I5268
sI32036
I5269
sI32045
I5270
sI32050
I5271
sI32051
I5272
sI32052
I5273
sI32054
I5274
sI32062
I5275
sI32080
I5276
sI32083
I5277
sI32084
I5278
sI32085
I5279
sI32089
I5280
sI32090
I5281
sI32091
I5282
sI32096
I5283
sI32100
I5284
sI32106
I5285
sI32109
I5286
sI32116
I5287
sI32117
I5288
sI32125
I5289
sI32126
I5290
sI37077
I6150
sI32135
I5291
sI32140
I5292
sI32147
I5293
sI32152
I5294
sI32162
I5295
sI32164
I5296
sI32169
I5297
sI32171
I5298
sI32173
I5299
sI32182
I5300
sI32187
I5301
sI32188
I5302
sI32190
I5303
sI32191
I5304
sI32193
I5305
sI32197
I5306
sI32198
I5307
sI32199
I5308
sI32206
I5309
sI32207
I5310
sI32214
I5311
sI32221
I5312
sI32225
I5313
sI32228
I5314
sI32234
I5315
sI32237
I5316
sI32240
I5317
sI32243
I5318
sI32248
I5319
sI32256
I5320
sI32258
I5321
sI32259
I5322
sI32260
I5323
sI32261
I5324
sI32262
I5325
sI32268
I5326
sI32271
I5327
sI32276
I5328
sI32288
I5329
sI32298
I5330
sI32312
I5331
sI32336
I5332
sI32339
I5333
sI32348
I5334
sI32350
I5335
sI32351
I5336
sI32353
I5337
sI32359
I5338
sI32362
I5339
sI32363
I5340
sI32372
I5341
sI32375
I5342
sI32376
I5343
sI32381
I5344
sI32387
I5345
sI32397
I5346
sI32400
I5347
sI32408
I5348
sI32410
I5349
sI32433
I5350
sI32440
I5351
sI32445
I5352
sI32455
I5353
sI32468
I5354
sI32482
I5355
sI32485
I5356
sI32486
I5357
sI32493
I5358
sI32500
I5359
sI32501
I5360
sI32509
I5361
sI32511
I5362
sI32513
I5363
sI32534
I5364
sI32536
I5365
sI32543
I5366
sI32547
I5367
sI32567
I5368
sI32568
I5369
sI32570
I5370
sI32575
I5371
sI32577
I5372
sI32584
I5373
sI32587
I5374
sI32592
I5375
sI32593
I5376
sI32603
I5377
sI32607
I5378
sI32610
I5379
sI32611
I5380
sI32613
I5381
sI32614
I5382
sI32616
I5383
sI32619
I5384
sI32623
I5385
sI32628
I5386
sI32634
I5387
sI32635
I5388
sI32641
I5389
sI32643
I5390
sI32650
I5391
sI32653
I5392
sI32661
I5393
sI32664
I5394
sI32669
I5395
sI32676
I5396
sI32677
I5397
sI32689
I5398
sI32696
I5399
sI32715
I5400
sI32722
I5401
sI32729
I5402
sI32735
I5403
sI32737
I5404
sI32748
I5405
sI32754
I5406
sI32755
I5407
sI32765
I5408
sI32767
I5409
s.